(lp1
ccopy_reg
_reconstructor
p2
(cemotiv
EmotivPacket
p3
c__builtin__
object
p4
NtRp5
(dp6
S'battery'
p7
I2
sS'counter'
p8
I19
sS'sync'
p9
I00
sS'rawData'
p10
S"\x13n!\xbe\xe8@\xe05t\xd5\xfb\xf7\xe9\xc0\x00\x00\x02\x188'\x9d\xeb}%\xee\xb7\xa6\x9a\x88hk\xa3"
p11
sS'gyroX'
p12
I-2
sS'gyroY'
p13
I2
sS'sensors'
p14
S'{"P7": {"quality": 10, "value": 7914}, "FC6": {"quality": 10, "value": 7744}, "T7": {"quality": 13, "value": 7694}, "P8": {"quality": 6, "value": 8255}, "Y": {"quality": 0, "value": 2}, "X": {"quality": 0, "value": -3}, "O2": {"quality": 7, "value": 8414}, "O1": {"quality": 11, "value": 8037}, "FC5": {"quality": 11, "value": 7256}, "F3": {"quality": 9, "value": 7157}, "F4": {"quality": 9, "value": 7103}, "T8": {"quality": 9, "value": 7736}, "F7": {"quality": 12, "value": 8158}, "F8": {"quality": 11, "value": 8030}, "Unknown": {"quality": 11, "value": 82}, "AF4": {"quality": 10, "value": 8174}, "AF3": {"quality": 10, "value": 8592}}'
p15
sbag2
(g3
g4
NtRp16
(dp17
g7
I2
sg8
I20
sg9
I00
sg10
S"\x14nE\xbe\xb8C\xe0<t\xe1\xfc\x07\xeb\xc0\x00\x00\x02\x18\x08&^\x02}I\xf1'\xa7\xda\x9dhkg"
p18
sg12
I-2
sg13
I2
sg14
S'{"P7": {"quality": 10, "value": 7914}, "FC6": {"quality": 10, "value": 7744}, "T7": {"quality": 13, "value": 7694}, "P8": {"quality": 6, "value": 8255}, "Y": {"quality": 0, "value": 2}, "X": {"quality": 0, "value": -3}, "O2": {"quality": 7, "value": 8414}, "O1": {"quality": 11, "value": 8037}, "FC5": {"quality": 11, "value": 7256}, "F3": {"quality": 9, "value": 7157}, "F4": {"quality": 9, "value": 7103}, "T8": {"quality": 9, "value": 7736}, "F7": {"quality": 12, "value": 8158}, "F8": {"quality": 11, "value": 8030}, "Unknown": {"quality": 11, "value": 82}, "AF4": {"quality": 10, "value": 8174}, "AF3": {"quality": 10, "value": 8592}}'
p19
sbag2
(g3
g4
NtRp20
(dp21
g7
I2
sg8
I21
sg9
I00
sg10
S"\x15ne\xbf\x98F\xa0<u%\xfc'\xe9\x80\x00\x00\x02\x18\xb8(\x9e\r}\x81\xf2W\xaa\x1a\xa1hkz"
p22
sg12
I-2
sg13
I2
sg14
S'{"P7": {"quality": 10, "value": 7914}, "FC6": {"quality": 10, "value": 7744}, "T7": {"quality": 13, "value": 7694}, "P8": {"quality": 6, "value": 8255}, "Y": {"quality": 0, "value": 2}, "X": {"quality": 0, "value": -3}, "O2": {"quality": 7, "value": 8414}, "O1": {"quality": 11, "value": 8037}, "FC5": {"quality": 11, "value": 7256}, "F3": {"quality": 9, "value": 7157}, "F4": {"quality": 9, "value": 7103}, "T8": {"quality": 9, "value": 7736}, "F7": {"quality": 12, "value": 8158}, "F8": {"quality": 11, "value": 8030}, "Unknown": {"quality": 11, "value": 82}, "AF4": {"quality": 10, "value": 8174}, "AF3": {"quality": 10, "value": 8592}}'
p23
sbag2
(g3
g4
NtRp24
(dp25
g7
I2
sg8
I22
sg9
I00
sg10
S"\x16n\x95\xc08H\xa0?uE\xfb'\xe7@\x00\x00\x02\x19h,^\x0c}\xb1\xf27\xab\xda\x9ehkN"
p26
sg12
I-2
sg13
I2
sg14
S'{"P7": {"quality": 10, "value": 7914}, "FC6": {"quality": 10, "value": 7744}, "T7": {"quality": 13, "value": 7694}, "P8": {"quality": 6, "value": 8255}, "Y": {"quality": 0, "value": 2}, "X": {"quality": 0, "value": -3}, "O2": {"quality": 7, "value": 8414}, "O1": {"quality": 11, "value": 8037}, "FC5": {"quality": 11, "value": 7256}, "F3": {"quality": 9, "value": 7157}, "F4": {"quality": 9, "value": 7103}, "T8": {"quality": 9, "value": 7736}, "F7": {"quality": 12, "value": 8158}, "F8": {"quality": 11, "value": 8030}, "Unknown": {"quality": 11, "value": 82}, "AF4": {"quality": 10, "value": 8174}, "AF3": {"quality": 10, "value": 8592}}'
p27
sbag2
(g3
g4
NtRp28
(dp29
g7
I2
sg8
I23
sg9
I00
sg10
S"\x17n\x85\xbfxF\xa01u-\xfa7\xea@\x00\x00\x02\x18\x08'\xde\n}\x9d\xf2\xb7\xaaZ\xa0hlB"
p30
sg12
I-2
sg13
I3
sg14
S'{"P7": {"quality": 10, "value": 7914}, "FC6": {"quality": 10, "value": 7744}, "T7": {"quality": 13, "value": 7694}, "P8": {"quality": 6, "value": 8255}, "Y": {"quality": 0, "value": 2}, "X": {"quality": 0, "value": -3}, "O2": {"quality": 7, "value": 8414}, "O1": {"quality": 11, "value": 8037}, "FC5": {"quality": 11, "value": 7256}, "F3": {"quality": 9, "value": 7157}, "F4": {"quality": 9, "value": 7103}, "T8": {"quality": 9, "value": 7736}, "F7": {"quality": 12, "value": 8158}, "F8": {"quality": 11, "value": 8030}, "Unknown": {"quality": 11, "value": 82}, "AF4": {"quality": 10, "value": 8174}, "AF3": {"quality": 10, "value": 8592}}'
p31
sbag2
(g3
g4
NtRp32
(dp33
g7
I2
sg8
I24
sg9
I00
sg10
S"\x18nM\xbe\xe8C \x1du9\xfaW\xe9@\x00\x00\x02\x15\xd8\x1e\xde\x03}Q\xf2'\xa5Z\x99hl#"
p34
sg12
I-2
sg13
I3
sg14
S'{"P7": {"quality": 10, "value": 7914}, "FC6": {"quality": 10, "value": 7744}, "T7": {"quality": 13, "value": 7694}, "P8": {"quality": 6, "value": 8255}, "Y": {"quality": 0, "value": 2}, "X": {"quality": 0, "value": -3}, "O2": {"quality": 7, "value": 8414}, "O1": {"quality": 11, "value": 8037}, "FC5": {"quality": 11, "value": 7256}, "F3": {"quality": 9, "value": 7157}, "F4": {"quality": 9, "value": 7103}, "T8": {"quality": 9, "value": 7736}, "F7": {"quality": 12, "value": 8158}, "F8": {"quality": 11, "value": 8030}, "Unknown": {"quality": 11, "value": 82}, "AF4": {"quality": 10, "value": 8174}, "AF3": {"quality": 10, "value": 8592}}'
p35
sbag2
(g3
g4
NtRp36
(dp37
g7
I2
sg8
I25
sg9
I00
sg10
S'\x19nE\xbf8C`\x1eua\xfa7\xe3\x80\x00\x00\x02\x15\xb8\x1f^\x04})\xf1\xc7\xa2\x9a\x97hl\x14'
p38
sg12
I-2
sg13
I3
sg14
S'{"P7": {"quality": 10, "value": 7914}, "FC6": {"quality": 10, "value": 7744}, "T7": {"quality": 13, "value": 7694}, "P8": {"quality": 6, "value": 8255}, "Y": {"quality": 0, "value": 2}, "X": {"quality": 0, "value": -3}, "O2": {"quality": 7, "value": 8414}, "O1": {"quality": 11, "value": 8037}, "FC5": {"quality": 11, "value": 7256}, "F3": {"quality": 9, "value": 7157}, "F4": {"quality": 9, "value": 7103}, "T8": {"quality": 9, "value": 7736}, "F7": {"quality": 12, "value": 8158}, "F8": {"quality": 11, "value": 8030}, "Unknown": {"quality": 11, "value": 82}, "AF4": {"quality": 10, "value": 8174}, "AF3": {"quality": 10, "value": 8592}}'
p39
sbag2
(g3
g4
NtRp40
(dp41
g7
I2
sg8
I26
sg9
I00
sg10
S'\x1anI\xbe\xf8C\xa0"u]\xf9\xd7\xe5@\x00\x00\x02\x16\xc8&\x1e\x1a}9\xf27\xa3\x9a\xa1gl\xf3'
p42
sg12
I-3
sg13
I3
sg14
S'{"P7": {"quality": 10, "value": 7914}, "FC6": {"quality": 10, "value": 7744}, "T7": {"quality": 13, "value": 7694}, "P8": {"quality": 6, "value": 8255}, "Y": {"quality": 0, "value": 2}, "X": {"quality": 0, "value": -3}, "O2": {"quality": 7, "value": 8414}, "O1": {"quality": 11, "value": 8037}, "FC5": {"quality": 11, "value": 7256}, "F3": {"quality": 9, "value": 7157}, "F4": {"quality": 9, "value": 7103}, "T8": {"quality": 9, "value": 7736}, "F7": {"quality": 12, "value": 8158}, "F8": {"quality": 11, "value": 8030}, "Unknown": {"quality": 11, "value": 82}, "AF4": {"quality": 10, "value": 8174}, "AF3": {"quality": 10, "value": 8592}}'
p43
sbag2
(g3
g4
NtRp44
(dp45
g7
I2
sg8
I27
sg9
I00
sg10
S'\x1bn5\xbe\xa8A`\x1cuU\xfa\x07\xe6\xc0\x00\x00\x02\x16\xd8&^1}1\xf2g\xa5\x1a\xa2gl\xe2'
p46
sg12
I-3
sg13
I3
sg14
S'{"P7": {"quality": 10, "value": 7914}, "FC6": {"quality": 10, "value": 7744}, "T7": {"quality": 13, "value": 7694}, "P8": {"quality": 6, "value": 8255}, "Y": {"quality": 0, "value": 2}, "X": {"quality": 0, "value": -3}, "O2": {"quality": 7, "value": 8414}, "O1": {"quality": 11, "value": 8037}, "FC5": {"quality": 11, "value": 7256}, "F3": {"quality": 9, "value": 7157}, "F4": {"quality": 9, "value": 7103}, "T8": {"quality": 9, "value": 7736}, "F7": {"quality": 12, "value": 8158}, "F8": {"quality": 11, "value": 8030}, "Unknown": {"quality": 11, "value": 82}, "AF4": {"quality": 10, "value": 8174}, "AF3": {"quality": 10, "value": 8592}}'
p47
sbag2
(g3
g4
NtRp48
(dp49
g7
I2
sg8
I28
sg9
I00
sg10
S'\x1cn=\xbf\xb8A\xe0\x1cu\x8d\xfa7\xe2\x80\x00\x00\x02\x16\xc8#\x9e=}E\xf2w\xa6\x1a\xa0gk\xef'
p50
sg12
I-3
sg13
I2
sg14
S'{"P7": {"quality": 10, "value": 7914}, "FC6": {"quality": 10, "value": 7744}, "T7": {"quality": 13, "value": 7694}, "P8": {"quality": 6, "value": 8255}, "Y": {"quality": 0, "value": 2}, "X": {"quality": 0, "value": -3}, "O2": {"quality": 7, "value": 8414}, "O1": {"quality": 11, "value": 8037}, "FC5": {"quality": 11, "value": 7256}, "F3": {"quality": 9, "value": 7157}, "F4": {"quality": 9, "value": 7103}, "T8": {"quality": 9, "value": 7736}, "F7": {"quality": 12, "value": 8158}, "F8": {"quality": 11, "value": 8030}, "Unknown": {"quality": 11, "value": 82}, "AF4": {"quality": 10, "value": 8174}, "AF3": {"quality": 10, "value": 8592}}'
p51
sbag2
(g3
g4
NtRp52
(dp53
g7
I2
sg8
I29
sg9
I00
sg10
S'\x1dnU\xc0\xe8C` u\xc1\xf9\xe7\xe5\xc0\x00\x00\x02\x17\xd8%\xdeE}q\xf2\x97\xa5\x9a\xafgk\xce'
p54
sg12
I-3
sg13
I2
sg14
S'{"P7": {"quality": 10, "value": 7914}, "FC6": {"quality": 10, "value": 7744}, "T7": {"quality": 13, "value": 7694}, "P8": {"quality": 6, "value": 8255}, "Y": {"quality": 0, "value": 2}, "X": {"quality": 0, "value": -3}, "O2": {"quality": 7, "value": 8414}, "O1": {"quality": 11, "value": 8037}, "FC5": {"quality": 11, "value": 7256}, "F3": {"quality": 9, "value": 7157}, "F4": {"quality": 9, "value": 7103}, "T8": {"quality": 9, "value": 7736}, "F7": {"quality": 12, "value": 8158}, "F8": {"quality": 11, "value": 8030}, "Unknown": {"quality": 11, "value": 82}, "AF4": {"quality": 10, "value": 8174}, "AF3": {"quality": 10, "value": 8592}}'
p55
sbag2
(g3
g4
NtRp56
(dp57
g7
I2
sg8
I30
sg9
I00
sg10
S'\x1enQ\xc0\xc8C\xe0"u\xbd\xfa\'\xeb\x80\x00\x00\x02\x18H&\xdeH}M\xf2\xc7\xa3\x1a\xbagk\xcb'
p58
sg12
I-3
sg13
I2
sg14
S'{"P7": {"quality": 10, "value": 7914}, "FC6": {"quality": 10, "value": 7744}, "T7": {"quality": 13, "value": 7694}, "P8": {"quality": 6, "value": 8255}, "Y": {"quality": 0, "value": 2}, "X": {"quality": 0, "value": -3}, "O2": {"quality": 7, "value": 8414}, "O1": {"quality": 11, "value": 8037}, "FC5": {"quality": 11, "value": 7256}, "F3": {"quality": 9, "value": 7157}, "F4": {"quality": 9, "value": 7103}, "T8": {"quality": 9, "value": 7736}, "F7": {"quality": 12, "value": 8158}, "F8": {"quality": 11, "value": 8030}, "Unknown": {"quality": 11, "value": 82}, "AF4": {"quality": 10, "value": 8174}, "AF3": {"quality": 10, "value": 8592}}'
p59
sbag2
(g3
g4
NtRp60
(dp61
g7
I2
sg8
I31
sg9
I00
sg10
S'\x1fnu\xc08D\xa0!u\xe5\xf9\xf7\xe8\xc0\x00\x00\x02\x17\x18#\xdeC}%\xf2g\xa2Z\xb4gk\xba'
p62
sg12
I-3
sg13
I2
sg14
S'{"P7": {"quality": 10, "value": 7914}, "FC6": {"quality": 10, "value": 7744}, "T7": {"quality": 13, "value": 7694}, "P8": {"quality": 6, "value": 8255}, "Y": {"quality": 0, "value": 2}, "X": {"quality": 0, "value": -3}, "O2": {"quality": 7, "value": 8414}, "O1": {"quality": 11, "value": 8037}, "FC5": {"quality": 11, "value": 7256}, "F3": {"quality": 9, "value": 7157}, "F4": {"quality": 9, "value": 7103}, "T8": {"quality": 9, "value": 7736}, "F7": {"quality": 12, "value": 8158}, "F8": {"quality": 11, "value": 8030}, "Unknown": {"quality": 11, "value": 82}, "AF4": {"quality": 10, "value": 8174}, "AF3": {"quality": 10, "value": 8592}}'
p63
sbag2
(g3
g4
NtRp64
(dp65
g7
I2
sg8
I32
sg9
I00
sg10
S' n\xc5\xc0XE \x1fv\t\xf8\xc7\xeb\x00\x00\x00\x02\x178"^A}q\xf2\x97\xa3\x9a\xb4gk\xb9'
p66
sg12
I-3
sg13
I2
sg14
S'{"P7": {"quality": 10, "value": 7914}, "FC6": {"quality": 10, "value": 7744}, "T7": {"quality": 13, "value": 7694}, "P8": {"quality": 6, "value": 8255}, "Y": {"quality": 0, "value": 2}, "X": {"quality": 0, "value": -3}, "O2": {"quality": 7, "value": 8414}, "O1": {"quality": 11, "value": 8037}, "FC5": {"quality": 11, "value": 7256}, "F3": {"quality": 9, "value": 7157}, "F4": {"quality": 9, "value": 7103}, "T8": {"quality": 9, "value": 7736}, "F7": {"quality": 12, "value": 8158}, "F8": {"quality": 11, "value": 8030}, "Unknown": {"quality": 11, "value": 82}, "AF4": {"quality": 10, "value": 8174}, "AF3": {"quality": 10, "value": 8592}}'
p67
sbag2
(g3
g4
NtRp68
(dp69
g7
I2
sg8
I33
sg9
I00
sg10
S'!n\xcd\xc1\x18E \x1ev\r\xf87\xf1\x80\x00\x00\x02\x18X!\x9eK}\x99\xf3\xa7\xa3\x9a\xc6gk\xaa'
p70
sg12
I-3
sg13
I2
sg14
S'{"P7": {"quality": 10, "value": 7914}, "FC6": {"quality": 10, "value": 7744}, "T7": {"quality": 13, "value": 7694}, "P8": {"quality": 6, "value": 8255}, "Y": {"quality": 0, "value": 2}, "X": {"quality": 0, "value": -3}, "O2": {"quality": 7, "value": 8414}, "O1": {"quality": 11, "value": 8037}, "FC5": {"quality": 11, "value": 7256}, "F3": {"quality": 9, "value": 7157}, "F4": {"quality": 9, "value": 7103}, "T8": {"quality": 9, "value": 7736}, "F7": {"quality": 12, "value": 8158}, "F8": {"quality": 11, "value": 8030}, "Unknown": {"quality": 11, "value": 82}, "AF4": {"quality": 10, "value": 8174}, "AF3": {"quality": 10, "value": 8592}}'
p71
sbag2
(g3
g4
NtRp72
(dp73
g7
I2
sg8
I34
sg9
I00
sg10
S'"n\xc1\xc2\x18G \x1fvI\xf8\xb7\xee\x80\x00\x00\x02\x17\xa8!\x1eZ}\xa1\xf4\xe7\xa5Z\xd7gk\xbd'
p74
sg12
I-3
sg13
I2
sg14
S'{"P7": {"quality": 10, "value": 7914}, "FC6": {"quality": 10, "value": 7744}, "T7": {"quality": 13, "value": 7694}, "P8": {"quality": 6, "value": 8255}, "Y": {"quality": 0, "value": 2}, "X": {"quality": 0, "value": -3}, "O2": {"quality": 7, "value": 8414}, "O1": {"quality": 11, "value": 8037}, "FC5": {"quality": 11, "value": 7256}, "F3": {"quality": 9, "value": 7157}, "F4": {"quality": 9, "value": 7103}, "T8": {"quality": 9, "value": 7736}, "F7": {"quality": 12, "value": 8158}, "F8": {"quality": 11, "value": 8030}, "Unknown": {"quality": 11, "value": 82}, "AF4": {"quality": 10, "value": 8174}, "AF3": {"quality": 10, "value": 8592}}'
p75
sbag2
(g3
g4
NtRp76
(dp77
g7
I2
sg8
I35
sg9
I00
sg10
S'#o\r\xc3xL\xe0\x1cv\xb1\xf8\xe7\xe7\x80\x00\x00\x02\x17\x18$\x9em}\xe9\xf5\xd7\xab\x1a\xebgk\xbf'
p78
sg12
I-3
sg13
I2
sg14
S'{"P7": {"quality": 10, "value": 7914}, "FC6": {"quality": 10, "value": 7744}, "T7": {"quality": 13, "value": 7694}, "P8": {"quality": 6, "value": 8255}, "Y": {"quality": 0, "value": 2}, "X": {"quality": 0, "value": -3}, "O2": {"quality": 7, "value": 8414}, "O1": {"quality": 11, "value": 8037}, "FC5": {"quality": 11, "value": 7256}, "F3": {"quality": 9, "value": 7157}, "F4": {"quality": 9, "value": 7103}, "T8": {"quality": 9, "value": 7736}, "F7": {"quality": 12, "value": 8158}, "F8": {"quality": 11, "value": 8030}, "Unknown": {"quality": 11, "value": 82}, "AF4": {"quality": 10, "value": 8174}, "AF3": {"quality": 10, "value": 8592}}'
p79
sbag2
(g3
g4
NtRp80
(dp81
g7
I2
sg8
I36
sg9
I00
sg10
S'$oa\xc4\xc8Q`\x0cv\xf1\xf8\x97\xea\x00\x00\x00\x02\x19\x08,\x9e\x8a~M\xf7\x17\xb0\x1a\xfegl\xd3'
p82
sg12
I-3
sg13
I3
sg14
S'{"P7": {"quality": 10, "value": 7914}, "FC6": {"quality": 10, "value": 7744}, "T7": {"quality": 13, "value": 7694}, "P8": {"quality": 6, "value": 8255}, "Y": {"quality": 0, "value": 2}, "X": {"quality": 0, "value": -3}, "O2": {"quality": 7, "value": 8414}, "O1": {"quality": 11, "value": 8037}, "FC5": {"quality": 11, "value": 7256}, "F3": {"quality": 9, "value": 7157}, "F4": {"quality": 9, "value": 7103}, "T8": {"quality": 9, "value": 7736}, "F7": {"quality": 12, "value": 8158}, "F8": {"quality": 11, "value": 8030}, "Unknown": {"quality": 11, "value": 82}, "AF4": {"quality": 10, "value": 8174}, "AF3": {"quality": 10, "value": 8592}}'
p83
sbag2
(g3
g4
NtRp84
(dp85
g7
I2
sg8
I37
sg9
I00
sg10
S'%oe\xc5\x98Q\x1f\xfbw\x19\xf8\x97\xef@\x00\x00\x02\x1a8.\xde\x94~m\xf7\xe7\xb0\x1b\x01gl\xf4'
p86
sg12
I-3
sg13
I3
sg14
S'{"P7": {"quality": 10, "value": 7914}, "FC6": {"quality": 10, "value": 7744}, "T7": {"quality": 13, "value": 7694}, "P8": {"quality": 6, "value": 8255}, "Y": {"quality": 0, "value": 2}, "X": {"quality": 0, "value": -3}, "O2": {"quality": 7, "value": 8414}, "O1": {"quality": 11, "value": 8037}, "FC5": {"quality": 11, "value": 7256}, "F3": {"quality": 9, "value": 7157}, "F4": {"quality": 9, "value": 7103}, "T8": {"quality": 9, "value": 7736}, "F7": {"quality": 12, "value": 8158}, "F8": {"quality": 11, "value": 8030}, "Unknown": {"quality": 11, "value": 82}, "AF4": {"quality": 10, "value": 8174}, "AF3": {"quality": 10, "value": 8592}}'
p87
sbag2
(g3
g4
NtRp88
(dp89
g7
I2
sg8
I38
sg9
I00
sg10
S'&oQ\xc5\xd8O\x9f\xf7w%\xf8\x87\xed\x00\x00\x00\x02\x18\xd8)\x1e\x84~-\xf6\xf7\xac\x9a\xf9hl)'
p90
sg12
I-2
sg13
I3
sg14
S'{"P7": {"quality": 10, "value": 7914}, "FC6": {"quality": 10, "value": 7744}, "T7": {"quality": 13, "value": 7694}, "P8": {"quality": 6, "value": 8255}, "Y": {"quality": 0, "value": 2}, "X": {"quality": 0, "value": -3}, "O2": {"quality": 7, "value": 8414}, "O1": {"quality": 11, "value": 8037}, "FC5": {"quality": 11, "value": 7256}, "F3": {"quality": 9, "value": 7157}, "F4": {"quality": 9, "value": 7103}, "T8": {"quality": 9, "value": 7736}, "F7": {"quality": 12, "value": 8158}, "F8": {"quality": 11, "value": 8030}, "Unknown": {"quality": 11, "value": 82}, "AF4": {"quality": 10, "value": 8174}, "AF3": {"quality": 10, "value": 8592}}'
p91
sbag2
(g3
g4
NtRp92
(dp93
g7
I2
sg8
I39
sg9
I00
sg10
S"'oQ\xc6\x18Q_\xfaw-\xf8\x97\xeb@\x00\x00\x02\x18\xb8&\x9e\x84~\x11\xf6\xf7\xaa\x9a\xf9hl<"
p94
sg12
I-2
sg13
I3
sg14
S'{"P7": {"quality": 10, "value": 7914}, "FC6": {"quality": 10, "value": 7744}, "T7": {"quality": 13, "value": 7694}, "P8": {"quality": 6, "value": 8255}, "Y": {"quality": 0, "value": 2}, "X": {"quality": 0, "value": -3}, "O2": {"quality": 7, "value": 8414}, "O1": {"quality": 11, "value": 8037}, "FC5": {"quality": 11, "value": 7256}, "F3": {"quality": 9, "value": 7157}, "F4": {"quality": 9, "value": 7103}, "T8": {"quality": 9, "value": 7736}, "F7": {"quality": 12, "value": 8158}, "F8": {"quality": 11, "value": 8030}, "Unknown": {"quality": 11, "value": 82}, "AF4": {"quality": 10, "value": 8174}, "AF3": {"quality": 10, "value": 8592}}'
p95
sbag2
(g3
g4
NtRp96
(dp97
g7
I2
sg8
I40
sg9
I00
sg10
S"(o]\xc6hS\xdf\xf6wu\xf8\xc7\xeb\xc0\x00\x00\x02\x19x'\xde\x90~m\xf8W\xac\x9a\xfehl^"
p98
sg12
I-2
sg13
I3
sg14
S'{"P7": {"quality": 10, "value": 7914}, "FC6": {"quality": 10, "value": 7744}, "T7": {"quality": 13, "value": 7694}, "P8": {"quality": 6, "value": 8255}, "Y": {"quality": 0, "value": 2}, "X": {"quality": 0, "value": -3}, "O2": {"quality": 7, "value": 8414}, "O1": {"quality": 11, "value": 8037}, "FC5": {"quality": 11, "value": 7256}, "F3": {"quality": 9, "value": 7157}, "F4": {"quality": 9, "value": 7103}, "T8": {"quality": 9, "value": 7736}, "F7": {"quality": 12, "value": 8158}, "F8": {"quality": 11, "value": 8030}, "Unknown": {"quality": 11, "value": 82}, "AF4": {"quality": 10, "value": 8174}, "AF3": {"quality": 10, "value": 8592}}'
p99
sbag2
(g3
g4
NtRp100
(dp101
g7
I2
sg8
I41
sg9
I00
sg10
S')oy\xc6\x88U\xdf\xeew\x9d\xf8g\xec@\x00\x00\x02\x188%\x9e\x8b~\x9d\xf8\xc7\xad\x9a\xf9hln'
p102
sg12
I-2
sg13
I3
sg14
S'{"P7": {"quality": 10, "value": 7914}, "FC6": {"quality": 10, "value": 7744}, "T7": {"quality": 13, "value": 7694}, "P8": {"quality": 6, "value": 8255}, "Y": {"quality": 0, "value": 2}, "X": {"quality": 0, "value": -3}, "O2": {"quality": 7, "value": 8414}, "O1": {"quality": 11, "value": 8037}, "FC5": {"quality": 11, "value": 7256}, "F3": {"quality": 9, "value": 7157}, "F4": {"quality": 9, "value": 7103}, "T8": {"quality": 9, "value": 7736}, "F7": {"quality": 12, "value": 8158}, "F8": {"quality": 11, "value": 8030}, "Unknown": {"quality": 11, "value": 82}, "AF4": {"quality": 10, "value": 8174}, "AF3": {"quality": 10, "value": 8592}}'
p103
sbag2
(g3
g4
NtRp104
(dp105
g7
I2
sg8
I42
sg9
I00
sg10
S'*o\x95\xc7\x18X\x1f\xebw\x81\xf7\xe7\xee\x00\x00\x00\x02\x17x$\x1e\x8e~]\xf8\xb7\xab\x9a\xf7hl\x8d'
p106
sg12
I-2
sg13
I3
sg14
S'{"P7": {"quality": 10, "value": 7914}, "FC6": {"quality": 10, "value": 7744}, "T7": {"quality": 13, "value": 7694}, "P8": {"quality": 6, "value": 8255}, "Y": {"quality": 0, "value": 2}, "X": {"quality": 0, "value": -3}, "O2": {"quality": 7, "value": 8414}, "O1": {"quality": 11, "value": 8037}, "FC5": {"quality": 11, "value": 7256}, "F3": {"quality": 9, "value": 7157}, "F4": {"quality": 9, "value": 7103}, "T8": {"quality": 9, "value": 7736}, "F7": {"quality": 12, "value": 8158}, "F8": {"quality": 11, "value": 8030}, "Unknown": {"quality": 11, "value": 82}, "AF4": {"quality": 10, "value": 8174}, "AF3": {"quality": 10, "value": 8592}}'
p107
sbag2
(g3
g4
NtRp108
(dp109
g7
I2
sg8
I43
sg9
I00
sg10
S"+oi\xc7\xb8W\x1f\xe6w\x85\xf8'\xf0\x80\x00\x00\x02\x18\xf8'^\x9b~%\xf8\x07\xa8\x9a\xf0hl\x8a"
p110
sg12
I-2
sg13
I3
sg14
S'{"P7": {"quality": 10, "value": 7914}, "FC6": {"quality": 10, "value": 7744}, "T7": {"quality": 13, "value": 7694}, "P8": {"quality": 6, "value": 8255}, "Y": {"quality": 0, "value": 2}, "X": {"quality": 0, "value": -3}, "O2": {"quality": 7, "value": 8414}, "O1": {"quality": 11, "value": 8037}, "FC5": {"quality": 11, "value": 7256}, "F3": {"quality": 9, "value": 7157}, "F4": {"quality": 9, "value": 7103}, "T8": {"quality": 9, "value": 7736}, "F7": {"quality": 12, "value": 8158}, "F8": {"quality": 11, "value": 8030}, "Unknown": {"quality": 11, "value": 82}, "AF4": {"quality": 10, "value": 8174}, "AF3": {"quality": 10, "value": 8592}}'
p111
sbag2
(g3
g4
NtRp112
(dp113
g7
I2
sg8
I44
sg9
I00
sg10
S',o=\xc7\xb8T\xdf\xe1w\x8d\xf8\xa7\xf0\x00\x00\x00\x02\x19h&^\x97~\x01\xf6\xa7\xa6\x9a\xe1hl\x98'
p114
sg12
I-2
sg13
I3
sg14
S'{"P7": {"quality": 10, "value": 7914}, "FC6": {"quality": 10, "value": 7744}, "T7": {"quality": 13, "value": 7694}, "P8": {"quality": 6, "value": 8255}, "Y": {"quality": 0, "value": 2}, "X": {"quality": 0, "value": -3}, "O2": {"quality": 7, "value": 8414}, "O1": {"quality": 11, "value": 8037}, "FC5": {"quality": 11, "value": 7256}, "F3": {"quality": 9, "value": 7157}, "F4": {"quality": 9, "value": 7103}, "T8": {"quality": 9, "value": 7736}, "F7": {"quality": 12, "value": 8158}, "F8": {"quality": 11, "value": 8030}, "Unknown": {"quality": 11, "value": 82}, "AF4": {"quality": 10, "value": 8174}, "AF3": {"quality": 10, "value": 8592}}'
p115
sbag2
(g3
g4
NtRp116
(dp117
g7
I2
sg8
I45
sg9
I00
sg10
S'-om\xc7xW_\xe3w\x81\xf7w\xee\x80\x00\x00\x02\x188%\x1e\x9b~\x05\xf6\xe7\xa7\xda\xechl\x96'
p118
sg12
I-2
sg13
I3
sg14
S'{"P7": {"quality": 10, "value": 7914}, "FC6": {"quality": 10, "value": 7744}, "T7": {"quality": 13, "value": 7694}, "P8": {"quality": 6, "value": 8255}, "Y": {"quality": 0, "value": 2}, "X": {"quality": 0, "value": -3}, "O2": {"quality": 7, "value": 8414}, "O1": {"quality": 11, "value": 8037}, "FC5": {"quality": 11, "value": 7256}, "F3": {"quality": 9, "value": 7157}, "F4": {"quality": 9, "value": 7103}, "T8": {"quality": 9, "value": 7736}, "F7": {"quality": 12, "value": 8158}, "F8": {"quality": 11, "value": 8030}, "Unknown": {"quality": 11, "value": 82}, "AF4": {"quality": 10, "value": 8174}, "AF3": {"quality": 10, "value": 8592}}'
p119
sbag2
(g3
g4
NtRp120
(dp121
g7
I2
sg8
I46
sg9
I00
sg10
S'.o\x95\xc8\x18Z_\xeaw\x8d\xf6\xa7\xef\xc0\x00\x00\x02\x17\xe8&^\xa2~\x1d\xf8G\xa9\x1b\x04hl\xb6'
p122
sg12
I-2
sg13
I3
sg14
S'{"P7": {"quality": 10, "value": 7914}, "FC6": {"quality": 10, "value": 7744}, "T7": {"quality": 13, "value": 7694}, "P8": {"quality": 6, "value": 8255}, "Y": {"quality": 0, "value": 2}, "X": {"quality": 0, "value": -3}, "O2": {"quality": 7, "value": 8414}, "O1": {"quality": 11, "value": 8037}, "FC5": {"quality": 11, "value": 7256}, "F3": {"quality": 9, "value": 7157}, "F4": {"quality": 9, "value": 7103}, "T8": {"quality": 9, "value": 7736}, "F7": {"quality": 12, "value": 8158}, "F8": {"quality": 11, "value": 8030}, "Unknown": {"quality": 11, "value": 82}, "AF4": {"quality": 10, "value": 8174}, "AF3": {"quality": 10, "value": 8592}}'
p123
sbag2
(g3
g4
NtRp124
(dp125
g7
I2
sg8
I47
sg9
I00
sg10
S'/oa\xc8\xe8X_\xe4w\xc5\xf7\xb7\xed@\x00\x00\x02\x17h\x1f\x9e\x8f}\xd1\xf8\x07\xa5\xda\xffhl\xa4'
p126
sg12
I-2
sg13
I3
sg14
S'{"P7": {"quality": 10, "value": 7914}, "FC6": {"quality": 10, "value": 7744}, "T7": {"quality": 13, "value": 7694}, "P8": {"quality": 6, "value": 8255}, "Y": {"quality": 0, "value": 2}, "X": {"quality": 0, "value": -3}, "O2": {"quality": 7, "value": 8414}, "O1": {"quality": 11, "value": 8037}, "FC5": {"quality": 11, "value": 7256}, "F3": {"quality": 9, "value": 7157}, "F4": {"quality": 9, "value": 7103}, "T8": {"quality": 9, "value": 7736}, "F7": {"quality": 12, "value": 8158}, "F8": {"quality": 11, "value": 8030}, "Unknown": {"quality": 11, "value": 82}, "AF4": {"quality": 10, "value": 8174}, "AF3": {"quality": 10, "value": 8592}}'
p127
sbag2
(g3
g4
NtRp128
(dp129
g7
I2
sg8
I48
sg9
I00
sg10
S'0oA\xc8\xa8W_\xdfw\xfd\xf7\xc7\xe5\x00\x00\x00\x02\x16\xc8\x1a\xde\x8f}\xad\xf7\xb7\xa4\xda\xf2hl\xa6'
p130
sg12
I-2
sg13
I3
sg14
S'{"P7": {"quality": 10, "value": 7914}, "FC6": {"quality": 10, "value": 7744}, "T7": {"quality": 13, "value": 7694}, "P8": {"quality": 6, "value": 8255}, "Y": {"quality": 0, "value": 2}, "X": {"quality": 0, "value": -3}, "O2": {"quality": 7, "value": 8414}, "O1": {"quality": 11, "value": 8037}, "FC5": {"quality": 11, "value": 7256}, "F3": {"quality": 9, "value": 7157}, "F4": {"quality": 9, "value": 7103}, "T8": {"quality": 9, "value": 7736}, "F7": {"quality": 12, "value": 8158}, "F8": {"quality": 11, "value": 8030}, "Unknown": {"quality": 11, "value": 82}, "AF4": {"quality": 10, "value": 8174}, "AF3": {"quality": 10, "value": 8592}}'
p131
sbag2
(g3
g4
NtRp132
(dp133
g7
I2
sg8
I49
sg9
I00
sg10
S'1oY\xc7\xe8Y\x1f\xebx\r\xf6G\xe1@\x00\x00\x02\x17\xa8#^\xb1~\r\xf8G\xa8\x9b\thl\xc4'
p134
sg12
I-2
sg13
I3
sg14
S'{"P7": {"quality": 10, "value": 7914}, "FC6": {"quality": 10, "value": 7744}, "T7": {"quality": 13, "value": 7694}, "P8": {"quality": 6, "value": 8255}, "Y": {"quality": 0, "value": 2}, "X": {"quality": 0, "value": -3}, "O2": {"quality": 7, "value": 8414}, "O1": {"quality": 11, "value": 8037}, "FC5": {"quality": 11, "value": 7256}, "F3": {"quality": 9, "value": 7157}, "F4": {"quality": 9, "value": 7103}, "T8": {"quality": 9, "value": 7736}, "F7": {"quality": 12, "value": 8158}, "F8": {"quality": 11, "value": 8030}, "Unknown": {"quality": 11, "value": 82}, "AF4": {"quality": 10, "value": 8174}, "AF3": {"quality": 10, "value": 8592}}'
p135
sbag2
(g3
g4
NtRp136
(dp137
g7
I2
sg8
I50
sg9
I00
sg10
S"2oQ\xc7\xa8Y\x1f\xf1w\xfd\xf6\x07\xe7\xc0\x00\x00\x02\x18\xa8%\xde\xb8~)\xf8'\xa8\x9b\x11hl\xb3"
p138
sg12
I-2
sg13
I3
sg14
S'{"P7": {"quality": 10, "value": 7914}, "FC6": {"quality": 10, "value": 7744}, "T7": {"quality": 13, "value": 7694}, "P8": {"quality": 6, "value": 8255}, "Y": {"quality": 0, "value": 2}, "X": {"quality": 0, "value": -3}, "O2": {"quality": 7, "value": 8414}, "O1": {"quality": 11, "value": 8037}, "FC5": {"quality": 11, "value": 7256}, "F3": {"quality": 9, "value": 7157}, "F4": {"quality": 9, "value": 7103}, "T8": {"quality": 9, "value": 7736}, "F7": {"quality": 12, "value": 8158}, "F8": {"quality": 11, "value": 8030}, "Unknown": {"quality": 11, "value": 82}, "AF4": {"quality": 10, "value": 8174}, "AF3": {"quality": 10, "value": 8592}}'
p139
sbag2
(g3
g4
NtRp140
(dp141
g7
I2
sg8
I51
sg9
I00
sg10
S'3o]\xc7\xc8[\x1f\xe9x\x05\xf6\xb7\xeb@\x00\x00\x02\x18(!\x9e\xa8}\xdd\xf7\xe7\xa3Z\xfbhl\xd2'
p142
sg12
I-2
sg13
I3
sg14
S'{"P7": {"quality": 10, "value": 7914}, "FC6": {"quality": 10, "value": 7744}, "T7": {"quality": 13, "value": 7694}, "P8": {"quality": 6, "value": 8255}, "Y": {"quality": 0, "value": 2}, "X": {"quality": 0, "value": -3}, "O2": {"quality": 7, "value": 8414}, "O1": {"quality": 11, "value": 8037}, "FC5": {"quality": 11, "value": 7256}, "F3": {"quality": 9, "value": 7157}, "F4": {"quality": 9, "value": 7103}, "T8": {"quality": 9, "value": 7736}, "F7": {"quality": 12, "value": 8158}, "F8": {"quality": 11, "value": 8030}, "Unknown": {"quality": 11, "value": 82}, "AF4": {"quality": 10, "value": 8174}, "AF3": {"quality": 10, "value": 8592}}'
p143
sbag2
(g3
g4
NtRp144
(dp145
g7
I2
sg8
I52
sg9
I00
sg10
S'4o\x99\xc7\xb8_\x9f\xe2x\x1d\xf6W\xe7\xc0\x00\x00\x02\x17\xd8#\x9e\xb0}\xf1\xf8G\xa3Z\xfchl\xd0'
p146
sg12
I-2
sg13
I3
sg14
S'{"P7": {"quality": 10, "value": 7914}, "FC6": {"quality": 10, "value": 7744}, "T7": {"quality": 13, "value": 7694}, "P8": {"quality": 6, "value": 8255}, "Y": {"quality": 0, "value": 2}, "X": {"quality": 0, "value": -3}, "O2": {"quality": 7, "value": 8414}, "O1": {"quality": 11, "value": 8037}, "FC5": {"quality": 11, "value": 7256}, "F3": {"quality": 9, "value": 7157}, "F4": {"quality": 9, "value": 7103}, "T8": {"quality": 9, "value": 7736}, "F7": {"quality": 12, "value": 8158}, "F8": {"quality": 11, "value": 8030}, "Unknown": {"quality": 11, "value": 82}, "AF4": {"quality": 10, "value": 8174}, "AF3": {"quality": 10, "value": 8592}}'
p147
sbag2
(g3
g4
NtRp148
(dp149
g7
I2
sg8
I53
sg9
I00
sg10
S'5o\x99\xc7\xd8^\x1f\xe2x!\xf5\xf7\xe8\x00\x00\x00\x02\x18X$\xde\xb6~\x1d\xf8\x97\xa5\x9b\x0ehl\xe0'
p150
sg12
I-2
sg13
I3
sg14
S'{"P7": {"quality": 10, "value": 7914}, "FC6": {"quality": 10, "value": 7744}, "T7": {"quality": 13, "value": 7694}, "P8": {"quality": 6, "value": 8255}, "Y": {"quality": 0, "value": 2}, "X": {"quality": 0, "value": -3}, "O2": {"quality": 7, "value": 8414}, "O1": {"quality": 11, "value": 8037}, "FC5": {"quality": 11, "value": 7256}, "F3": {"quality": 9, "value": 7157}, "F4": {"quality": 9, "value": 7103}, "T8": {"quality": 9, "value": 7736}, "F7": {"quality": 12, "value": 8158}, "F8": {"quality": 11, "value": 8030}, "Unknown": {"quality": 11, "value": 82}, "AF4": {"quality": 10, "value": 8174}, "AF3": {"quality": 10, "value": 8592}}'
p151
sbag2
(g3
g4
NtRp152
(dp153
g7
I2
sg8
I54
sg9
I00
sg10
S'6oY\xc7\xf8Y\xdf\xdfx%\xf6g\xe9\xc0\x00\x00\x02\x17\xd8\x1e\x9e\xa4}\xed\xf8g\xa2\x9b\x06hk\xef'
p154
sg12
I-2
sg13
I2
sg14
S'{"P7": {"quality": 10, "value": 7914}, "FC6": {"quality": 10, "value": 7744}, "T7": {"quality": 13, "value": 7694}, "P8": {"quality": 6, "value": 8255}, "Y": {"quality": 0, "value": 2}, "X": {"quality": 0, "value": -3}, "O2": {"quality": 7, "value": 8414}, "O1": {"quality": 11, "value": 8037}, "FC5": {"quality": 11, "value": 7256}, "F3": {"quality": 9, "value": 7157}, "F4": {"quality": 9, "value": 7103}, "T8": {"quality": 9, "value": 7736}, "F7": {"quality": 12, "value": 8158}, "F8": {"quality": 11, "value": 8030}, "Unknown": {"quality": 11, "value": 82}, "AF4": {"quality": 10, "value": 8174}, "AF3": {"quality": 10, "value": 8592}}'
p155
sbag2
(g3
g4
NtRp156
(dp157
g7
I2
sg8
I55
sg9
I00
sg10
S'7oA\xc7XZ\xdf\xc5x\x1d\xf6g\xe8\x00\x00\x00\x02\x16H\x18^\x96}\xb5\xf7\xd7\x9e\x9a\xf2ik\x0e'
p158
sg12
I-1
sg13
I2
sg14
S'{"P7": {"quality": 10, "value": 7914}, "FC6": {"quality": 10, "value": 7744}, "T7": {"quality": 13, "value": 7694}, "P8": {"quality": 6, "value": 8255}, "Y": {"quality": 0, "value": 2}, "X": {"quality": 0, "value": -3}, "O2": {"quality": 7, "value": 8414}, "O1": {"quality": 11, "value": 8037}, "FC5": {"quality": 11, "value": 7256}, "F3": {"quality": 9, "value": 7157}, "F4": {"quality": 9, "value": 7103}, "T8": {"quality": 9, "value": 7736}, "F7": {"quality": 12, "value": 8158}, "F8": {"quality": 11, "value": 8030}, "Unknown": {"quality": 11, "value": 82}, "AF4": {"quality": 10, "value": 8174}, "AF3": {"quality": 10, "value": 8592}}'
p159
sbag2
(g3
g4
NtRp160
(dp161
g7
I2
sg8
I56
sg9
I00
sg10
S'8ou\xc6\xb8_\x1f\xa7x1\xf6\x17\xe9@\x00\x00\x02\x15x\x18\x1e\x98}\xc5\xf8w\xa0\x1a\xffik\x1c'
p162
sg12
I-1
sg13
I2
sg14
S'{"P7": {"quality": 10, "value": 7914}, "FC6": {"quality": 10, "value": 7744}, "T7": {"quality": 13, "value": 7694}, "P8": {"quality": 6, "value": 8255}, "Y": {"quality": 0, "value": 2}, "X": {"quality": 0, "value": -3}, "O2": {"quality": 7, "value": 8414}, "O1": {"quality": 11, "value": 8037}, "FC5": {"quality": 11, "value": 7256}, "F3": {"quality": 9, "value": 7157}, "F4": {"quality": 9, "value": 7103}, "T8": {"quality": 9, "value": 7736}, "F7": {"quality": 12, "value": 8158}, "F8": {"quality": 11, "value": 8030}, "Unknown": {"quality": 11, "value": 82}, "AF4": {"quality": 10, "value": 8174}, "AF3": {"quality": 10, "value": 8592}}'
p163
sbag2
(g3
g4
NtRp164
(dp165
g7
I2
sg8
I57
sg9
I00
sg10
S'9o\xb9\xc7\x18b\xdf\xa5xi\xf6w\xef\xc0\x00\x00\x02\x16\xd8\x1c\xde\xa9~\r\xfaW\xa6\x1b\x19ik;'
p166
sg12
I-1
sg13
I2
sg14
S'{"P7": {"quality": 10, "value": 7914}, "FC6": {"quality": 10, "value": 7744}, "T7": {"quality": 13, "value": 7694}, "P8": {"quality": 6, "value": 8255}, "Y": {"quality": 0, "value": 2}, "X": {"quality": 0, "value": -3}, "O2": {"quality": 7, "value": 8414}, "O1": {"quality": 11, "value": 8037}, "FC5": {"quality": 11, "value": 7256}, "F3": {"quality": 9, "value": 7157}, "F4": {"quality": 9, "value": 7103}, "T8": {"quality": 9, "value": 7736}, "F7": {"quality": 12, "value": 8158}, "F8": {"quality": 11, "value": 8030}, "Unknown": {"quality": 11, "value": 82}, "AF4": {"quality": 10, "value": 8174}, "AF3": {"quality": 10, "value": 8592}}'
p167
sbag2
(g3
g4
NtRp168
(dp169
g7
I2
sg8
I58
sg9
I00
sg10
S':o\xd1\xc7\xb8c\x1f\xabxi\xf7\x07\xf0\xc0\x00\x00\x02\x18X \xde\xb2~1\xfa\xe7\xa9[!ikx'
p170
sg12
I-1
sg13
I2
sg14
S'{"P7": {"quality": 10, "value": 7914}, "FC6": {"quality": 10, "value": 7744}, "T7": {"quality": 13, "value": 7694}, "P8": {"quality": 6, "value": 8255}, "Y": {"quality": 0, "value": 2}, "X": {"quality": 0, "value": -3}, "O2": {"quality": 7, "value": 8414}, "O1": {"quality": 11, "value": 8037}, "FC5": {"quality": 11, "value": 7256}, "F3": {"quality": 9, "value": 7157}, "F4": {"quality": 9, "value": 7103}, "T8": {"quality": 9, "value": 7736}, "F7": {"quality": 12, "value": 8158}, "F8": {"quality": 11, "value": 8030}, "Unknown": {"quality": 11, "value": 82}, "AF4": {"quality": 10, "value": 8174}, "AF3": {"quality": 10, "value": 8592}}'
p171
sbag2
(g3
g4
NtRp172
(dp173
g7
I2
sg8
I59
sg9
I00
sg10
S';o\xad\xc7\xa8`\xdf\xa1xm\xf6g\xea@\x00\x00\x02\x18\x08\x1f^\xaa~\x15\xfa\x17\xa6[\x1dik\xa8'
p174
sg12
I-1
sg13
I2
sg14
S'{"P7": {"quality": 10, "value": 7914}, "FC6": {"quality": 10, "value": 7744}, "T7": {"quality": 13, "value": 7694}, "P8": {"quality": 6, "value": 8255}, "Y": {"quality": 0, "value": 2}, "X": {"quality": 0, "value": -3}, "O2": {"quality": 7, "value": 8414}, "O1": {"quality": 11, "value": 8037}, "FC5": {"quality": 11, "value": 7256}, "F3": {"quality": 9, "value": 7157}, "F4": {"quality": 9, "value": 7103}, "T8": {"quality": 9, "value": 7736}, "F7": {"quality": 12, "value": 8158}, "F8": {"quality": 11, "value": 8030}, "Unknown": {"quality": 11, "value": 82}, "AF4": {"quality": 10, "value": 8174}, "AF3": {"quality": 10, "value": 8592}}'
p175
sbag2
(g3
g4
NtRp176
(dp177
g7
I2
sg8
I60
sg9
I00
sg10
S'<o\x95\xc6\xe8_\xdf\x9ax\x89\xf6\x07\xe9\xc0\x00\x00\x02\x16\xa8\x1e\x1e\xa7~\x05\xf9\xd7\xa3[\x17ik\xf4'
p178
sg12
I-1
sg13
I2
sg14
S'{"P7": {"quality": 10, "value": 7914}, "FC6": {"quality": 10, "value": 7744}, "T7": {"quality": 13, "value": 7694}, "P8": {"quality": 6, "value": 8255}, "Y": {"quality": 0, "value": 2}, "X": {"quality": 0, "value": -3}, "O2": {"quality": 7, "value": 8414}, "O1": {"quality": 11, "value": 8037}, "FC5": {"quality": 11, "value": 7256}, "F3": {"quality": 9, "value": 7157}, "F4": {"quality": 9, "value": 7103}, "T8": {"quality": 9, "value": 7736}, "F7": {"quality": 12, "value": 8158}, "F8": {"quality": 11, "value": 8030}, "Unknown": {"quality": 11, "value": 82}, "AF4": {"quality": 10, "value": 8174}, "AF3": {"quality": 10, "value": 8592}}'
p179
sbag2
(g3
g4
NtRp180
(dp181
g7
I2
sg8
I61
sg9
I00
sg10
S"=o\xb1\xc6\x18`\x9f\x98xu\xf7'\xef\x80\x00\x00\x02\x16(\x1e\x1e\xaf~\x15\xfa'\xa5\x9b\x1cik\xf3"
p182
sg12
I-1
sg13
I2
sg14
S'{"P7": {"quality": 10, "value": 7914}, "FC6": {"quality": 10, "value": 7744}, "T7": {"quality": 13, "value": 7694}, "P8": {"quality": 6, "value": 8255}, "Y": {"quality": 0, "value": 2}, "X": {"quality": 0, "value": -3}, "O2": {"quality": 7, "value": 8414}, "O1": {"quality": 11, "value": 8037}, "FC5": {"quality": 11, "value": 7256}, "F3": {"quality": 9, "value": 7157}, "F4": {"quality": 9, "value": 7103}, "T8": {"quality": 9, "value": 7736}, "F7": {"quality": 12, "value": 8158}, "F8": {"quality": 11, "value": 8030}, "Unknown": {"quality": 11, "value": 82}, "AF4": {"quality": 10, "value": 8174}, "AF3": {"quality": 10, "value": 8592}}'
p183
sbag2
(g3
g4
NtRp184
(dp185
g7
I2
sg8
I62
sg9
I00
sg10
S'>o\xc9\xc6\xc8c\x1f\xabx]\xf7\x07\xf1\x80\x00\x00\x02\x17H \x9e\xb5~%\xfa\x97\xa7\x9b*jkC'
p186
sg12
I0
sg13
I2
sg14
S'{"P7": {"quality": 10, "value": 7914}, "FC6": {"quality": 10, "value": 7744}, "T7": {"quality": 13, "value": 7694}, "P8": {"quality": 6, "value": 8255}, "Y": {"quality": 0, "value": 2}, "X": {"quality": 0, "value": -3}, "O2": {"quality": 7, "value": 8414}, "O1": {"quality": 11, "value": 8037}, "FC5": {"quality": 11, "value": 7256}, "F3": {"quality": 9, "value": 7157}, "F4": {"quality": 9, "value": 7103}, "T8": {"quality": 9, "value": 7736}, "F7": {"quality": 12, "value": 8158}, "F8": {"quality": 11, "value": 8030}, "Unknown": {"quality": 11, "value": 82}, "AF4": {"quality": 10, "value": 8174}, "AF3": {"quality": 10, "value": 8592}}'
p187
sbag2
(g3
g4
NtRp188
(dp189
g7
I2
sg8
I63
sg9
I00
sg10
S'?o\xbd\xc9xf\xdf\xe2xU\xf5\xb7\xf1\x80\x00\x00\x02\x18\x98%\xde\xbd~\x11\xfa\xa7\xa5[,jkB'
p190
sg12
I0
sg13
I2
sg14
S'{"P7": {"quality": 10, "value": 7914}, "FC6": {"quality": 10, "value": 7744}, "T7": {"quality": 13, "value": 7694}, "P8": {"quality": 6, "value": 8255}, "Y": {"quality": 0, "value": 2}, "X": {"quality": 0, "value": -3}, "O2": {"quality": 7, "value": 8414}, "O1": {"quality": 11, "value": 8037}, "FC5": {"quality": 11, "value": 7256}, "F3": {"quality": 9, "value": 7157}, "F4": {"quality": 9, "value": 7103}, "T8": {"quality": 9, "value": 7736}, "F7": {"quality": 12, "value": 8158}, "F8": {"quality": 11, "value": 8030}, "Unknown": {"quality": 11, "value": 82}, "AF4": {"quality": 10, "value": 8174}, "AF3": {"quality": 10, "value": 8592}}'
p191
sbag2
(g3
g4
NtRp192
(dp193
g7
I2
sg8
I64
sg9
I00
sg10
S'@o\xc1\xcb\x88g \x0fx-\xf5\xd7\xf2A\x9f\x00\x02\x18h$\x1e\xb9}\xc1\xf9\x87\xa0\x1b\x1fjkS'
p194
sg12
I0
sg13
I2
sg14
S'{"P7": {"quality": 10, "value": 7914}, "FC6": {"quality": 10, "value": 7744}, "T7": {"quality": 13, "value": 7694}, "P8": {"quality": 6, "value": 8255}, "Y": {"quality": 0, "value": 2}, "X": {"quality": 0, "value": -3}, "O2": {"quality": 7, "value": 8414}, "O1": {"quality": 11, "value": 8037}, "FC5": {"quality": 11, "value": 7256}, "F3": {"quality": 9, "value": 7157}, "F4": {"quality": 9, "value": 7103}, "T8": {"quality": 9, "value": 7736}, "F7": {"quality": 12, "value": 8158}, "F8": {"quality": 11, "value": 8030}, "Unknown": {"quality": 11, "value": 82}, "AF4": {"quality": 10, "value": 8174}, "AF3": {"quality": 10, "value": 8592}}'
p195
sbag2
(g3
g4
NtRp196
(dp197
g7
I2
sg8
I65
sg9
I00
sg10
S'Ao\xb9\xcbXb\xe0\x18x\x05\xf5\x87\xf0A\xc3\x00\x02\x16\x98\x1c\xde\x95}1\xf7\xb7\x98[\x10jkr'
p198
sg12
I0
sg13
I2
sg14
S'{"P7": {"quality": 10, "value": 7914}, "FC6": {"quality": 10, "value": 7744}, "T7": {"quality": 13, "value": 7694}, "P8": {"quality": 6, "value": 8255}, "Y": {"quality": 0, "value": 2}, "X": {"quality": 0, "value": -3}, "O2": {"quality": 7, "value": 8414}, "O1": {"quality": 11, "value": 8037}, "FC5": {"quality": 11, "value": 7256}, "F3": {"quality": 9, "value": 7157}, "F4": {"quality": 9, "value": 7103}, "T8": {"quality": 9, "value": 7736}, "F7": {"quality": 12, "value": 8158}, "F8": {"quality": 11, "value": 8030}, "Unknown": {"quality": 11, "value": 82}, "AF4": {"quality": 10, "value": 8174}, "AF3": {"quality": 10, "value": 8592}}'
p199
sbag2
(g3
g4
NtRp200
(dp201
g7
I2
sg8
I66
sg9
I00
sg10
S'Boq\xcb(a\xa0#x%\xf4\xe7\xecA\xb6\x00\x02\x158\x18\x9e}|\xc5\xf6\xc7\x93\x1b\x04jk\x82'
p202
sg12
I0
sg13
I2
sg14
S'{"P7": {"quality": 10, "value": 7914}, "FC6": {"quality": 10, "value": 7744}, "T7": {"quality": 13, "value": 7694}, "P8": {"quality": 6, "value": 8255}, "Y": {"quality": 0, "value": 2}, "X": {"quality": 0, "value": -3}, "O2": {"quality": 7, "value": 8414}, "O1": {"quality": 11, "value": 8037}, "FC5": {"quality": 11, "value": 7256}, "F3": {"quality": 9, "value": 7157}, "F4": {"quality": 9, "value": 7103}, "T8": {"quality": 9, "value": 7736}, "F7": {"quality": 12, "value": 8158}, "F8": {"quality": 11, "value": 8030}, "Unknown": {"quality": 11, "value": 82}, "AF4": {"quality": 10, "value": 8174}, "AF3": {"quality": 10, "value": 8592}}'
p203
sbag2
(g3
g4
NtRp204
(dp205
g7
I2
sg8
I67
sg9
I00
sg10
S'Co=\xcb\xb8a (xY\xf5w\xeaA\xcb\x00\x02\x14\xd8\x17\xde\x82|u\xf6w\x90\x9b\x00jk\x90'
p206
sg12
I0
sg13
I2
sg14
S'{"P7": {"quality": 10, "value": 7914}, "FC6": {"quality": 10, "value": 7744}, "T7": {"quality": 13, "value": 7694}, "P8": {"quality": 6, "value": 8255}, "Y": {"quality": 0, "value": 2}, "X": {"quality": 0, "value": -3}, "O2": {"quality": 7, "value": 8414}, "O1": {"quality": 11, "value": 8037}, "FC5": {"quality": 11, "value": 7256}, "F3": {"quality": 9, "value": 7157}, "F4": {"quality": 9, "value": 7103}, "T8": {"quality": 9, "value": 7736}, "F7": {"quality": 12, "value": 8158}, "F8": {"quality": 11, "value": 8030}, "Unknown": {"quality": 11, "value": 82}, "AF4": {"quality": 10, "value": 8174}, "AF3": {"quality": 10, "value": 8592}}'
p207
sbag2
(g3
g4
NtRp208
(dp209
g7
I2
sg8
I68
sg9
I00
sg10
S"Do)\xcbX^\xe0\x0ex\x95\xf5g\xeaA\xde\x00\x02\x14x\x17\x9ez|\x11\xf5'\x8b\x9a\xf4jk\x90"
p210
sg12
I0
sg13
I2
sg14
S'{"P7": {"quality": 10, "value": 7914}, "FC6": {"quality": 10, "value": 7744}, "T7": {"quality": 13, "value": 7694}, "P8": {"quality": 6, "value": 8255}, "Y": {"quality": 0, "value": 2}, "X": {"quality": 0, "value": -3}, "O2": {"quality": 7, "value": 8414}, "O1": {"quality": 11, "value": 8037}, "FC5": {"quality": 11, "value": 7256}, "F3": {"quality": 9, "value": 7157}, "F4": {"quality": 9, "value": 7103}, "T8": {"quality": 9, "value": 7736}, "F7": {"quality": 12, "value": 8158}, "F8": {"quality": 11, "value": 8030}, "Unknown": {"quality": 11, "value": 82}, "AF4": {"quality": 10, "value": 8174}, "AF3": {"quality": 10, "value": 8592}}'
p211
sbag2
(g3
g4
NtRp212
(dp213
g7
I2
sg8
I69
sg9
I00
sg10
S'Eo\r\xca\x98^\xdf\xfcx\xb1\xf4\xc7\xea\x01\xb5\x00\x02\x14\x18\x17\xdek{\xed\xf4W\x87Z\xe2jj\x9e'
p214
sg12
I0
sg13
I1
sg14
S'{"P7": {"quality": 10, "value": 7914}, "FC6": {"quality": 10, "value": 7744}, "T7": {"quality": 13, "value": 7694}, "P8": {"quality": 6, "value": 8255}, "Y": {"quality": 0, "value": 2}, "X": {"quality": 0, "value": -3}, "O2": {"quality": 7, "value": 8414}, "O1": {"quality": 11, "value": 8037}, "FC5": {"quality": 11, "value": 7256}, "F3": {"quality": 9, "value": 7157}, "F4": {"quality": 9, "value": 7103}, "T8": {"quality": 9, "value": 7736}, "F7": {"quality": 12, "value": 8158}, "F8": {"quality": 11, "value": 8030}, "Unknown": {"quality": 11, "value": 82}, "AF4": {"quality": 10, "value": 8174}, "AF3": {"quality": 10, "value": 8592}}'
p215
sbag2
(g3
g4
NtRp216
(dp217
g7
I2
sg8
I70
sg9
I00
sg10
S"Fo\x1d\xca\xf8__\xfax\xa1\xf5'\xe9A\xc3\x00\x02\x148\x1a\x9ew|\x15\xf5\xa7\x8aZ\xe5jj}"
p218
sg12
I0
sg13
I1
sg14
S'{"P7": {"quality": 10, "value": 7914}, "FC6": {"quality": 10, "value": 7744}, "T7": {"quality": 13, "value": 7694}, "P8": {"quality": 6, "value": 8255}, "Y": {"quality": 0, "value": 2}, "X": {"quality": 0, "value": -3}, "O2": {"quality": 7, "value": 8414}, "O1": {"quality": 11, "value": 8037}, "FC5": {"quality": 11, "value": 7256}, "F3": {"quality": 9, "value": 7157}, "F4": {"quality": 9, "value": 7103}, "T8": {"quality": 9, "value": 7736}, "F7": {"quality": 12, "value": 8158}, "F8": {"quality": 11, "value": 8030}, "Unknown": {"quality": 11, "value": 82}, "AF4": {"quality": 10, "value": 8174}, "AF3": {"quality": 10, "value": 8592}}'
p219
sbag2
(g3
g4
NtRp220
(dp221
g7
I2
sg8
I71
sg9
I00
sg10
S'GoI\xcb\x98`_\xecx\x99\xf5\xf7\xe9\x81v\x00\x02\x158\x1d\xde\x89|A\xf7\x97\x90\x1a\xf8jj\x9c'
p222
sg12
I0
sg13
I1
sg14
S'{"P7": {"quality": 10, "value": 7914}, "FC6": {"quality": 10, "value": 7744}, "T7": {"quality": 13, "value": 7694}, "P8": {"quality": 6, "value": 8255}, "Y": {"quality": 0, "value": 2}, "X": {"quality": 0, "value": -3}, "O2": {"quality": 7, "value": 8414}, "O1": {"quality": 11, "value": 8037}, "FC5": {"quality": 11, "value": 7256}, "F3": {"quality": 9, "value": 7157}, "F4": {"quality": 9, "value": 7103}, "T8": {"quality": 9, "value": 7736}, "F7": {"quality": 12, "value": 8158}, "F8": {"quality": 11, "value": 8030}, "Unknown": {"quality": 11, "value": 82}, "AF4": {"quality": 10, "value": 8174}, "AF3": {"quality": 10, "value": 8592}}'
p223
sbag2
(g3
g4
NtRp224
(dp225
g7
I2
sg8
I72
sg9
I00
sg10
S"HoI\xcbh`\x1f\xd9x\x95\xf5\xf7\xeaAu\x00\x02\x15h\x1e^\x81|1\xf8'\x90\x1a\xfcjj|"
p226
sg12
I0
sg13
I1
sg14
S'{"P7": {"quality": 10, "value": 7914}, "FC6": {"quality": 10, "value": 7744}, "T7": {"quality": 13, "value": 7694}, "P8": {"quality": 6, "value": 8255}, "Y": {"quality": 0, "value": 2}, "X": {"quality": 0, "value": -3}, "O2": {"quality": 7, "value": 8414}, "O1": {"quality": 11, "value": 8037}, "FC5": {"quality": 11, "value": 7256}, "F3": {"quality": 9, "value": 7157}, "F4": {"quality": 9, "value": 7103}, "T8": {"quality": 9, "value": 7736}, "F7": {"quality": 12, "value": 8158}, "F8": {"quality": 11, "value": 8030}, "Unknown": {"quality": 11, "value": 82}, "AF4": {"quality": 10, "value": 8174}, "AF3": {"quality": 10, "value": 8592}}'
p227
sbag2
(g3
g4
NtRp228
(dp229
g7
I2
sg8
I73
sg9
I00
sg10
S'Io)\xcbh^\xdf\xd9x\x89\xf5G\xea\x01\x9c\x00\x02\x14h\x1c^z|!\xf8\x07\x8d\x9a\xf5jj{'
p230
sg12
I0
sg13
I1
sg14
S'{"P7": {"quality": 10, "value": 7914}, "FC6": {"quality": 10, "value": 7744}, "T7": {"quality": 13, "value": 7694}, "P8": {"quality": 6, "value": 8255}, "Y": {"quality": 0, "value": 2}, "X": {"quality": 0, "value": -3}, "O2": {"quality": 7, "value": 8414}, "O1": {"quality": 11, "value": 8037}, "FC5": {"quality": 11, "value": 7256}, "F3": {"quality": 9, "value": 7157}, "F4": {"quality": 9, "value": 7103}, "T8": {"quality": 9, "value": 7736}, "F7": {"quality": 12, "value": 8158}, "F8": {"quality": 11, "value": 8030}, "Unknown": {"quality": 11, "value": 82}, "AF4": {"quality": 10, "value": 8174}, "AF3": {"quality": 10, "value": 8592}}'
p231
sbag2
(g3
g4
NtRp232
(dp233
g7
I2
sg8
I74
sg9
I00
sg10
S'Jo=\xccxb_\xe0x\x89\xf5\x17\xe9\xc1\xba\x00\x02\x148\x1d^\x8a|Y\xf8W\x8e\xda\xfejjY'
p234
sg12
I0
sg13
I1
sg14
S'{"P7": {"quality": 10, "value": 7914}, "FC6": {"quality": 10, "value": 7744}, "T7": {"quality": 13, "value": 7694}, "P8": {"quality": 6, "value": 8255}, "Y": {"quality": 0, "value": 2}, "X": {"quality": 0, "value": -3}, "O2": {"quality": 7, "value": 8414}, "O1": {"quality": 11, "value": 8037}, "FC5": {"quality": 11, "value": 7256}, "F3": {"quality": 9, "value": 7157}, "F4": {"quality": 9, "value": 7103}, "T8": {"quality": 9, "value": 7736}, "F7": {"quality": 12, "value": 8158}, "F8": {"quality": 11, "value": 8030}, "Unknown": {"quality": 11, "value": 82}, "AF4": {"quality": 10, "value": 8174}, "AF3": {"quality": 10, "value": 8592}}'
p235
sbag2
(g3
g4
NtRp236
(dp237
g7
I2
sg8
I75
sg9
I00
sg10
S'Ko}\xce\x08h_\xe1x}\xf6\x07\xe9\x81\xb5\x00\x02\x14\xb8\x1f^\x93|\xa1\xf8\xd7\x91\xdb\x0ejjI'
p238
sg12
I0
sg13
I1
sg14
S'{"P7": {"quality": 10, "value": 7914}, "FC6": {"quality": 10, "value": 7744}, "T7": {"quality": 13, "value": 7694}, "P8": {"quality": 6, "value": 8255}, "Y": {"quality": 0, "value": 2}, "X": {"quality": 0, "value": -3}, "O2": {"quality": 7, "value": 8414}, "O1": {"quality": 11, "value": 8037}, "FC5": {"quality": 11, "value": 7256}, "F3": {"quality": 9, "value": 7157}, "F4": {"quality": 9, "value": 7103}, "T8": {"quality": 9, "value": 7736}, "F7": {"quality": 12, "value": 8158}, "F8": {"quality": 11, "value": 8030}, "Unknown": {"quality": 11, "value": 82}, "AF4": {"quality": 10, "value": 8174}, "AF3": {"quality": 10, "value": 8592}}'
p239
sbag2
(g3
g4
NtRp240
(dp241
g7
I2
sg8
I76
sg9
I00
sg10
S"Lo\xa5\xcf8h\xdf\xe4x\x85\xf6G\xe8\xc1\xab\x00\x02\x15h\x1f^\x8c|\xb9\xf8\xf7\x91\xdb\x1ajj'"
p242
sg12
I0
sg13
I1
sg14
S'{"P7": {"quality": 10, "value": 7914}, "FC6": {"quality": 10, "value": 7744}, "T7": {"quality": 13, "value": 7694}, "P8": {"quality": 6, "value": 8255}, "Y": {"quality": 0, "value": 2}, "X": {"quality": 0, "value": -3}, "O2": {"quality": 7, "value": 8414}, "O1": {"quality": 11, "value": 8037}, "FC5": {"quality": 11, "value": 7256}, "F3": {"quality": 9, "value": 7157}, "F4": {"quality": 9, "value": 7103}, "T8": {"quality": 9, "value": 7736}, "F7": {"quality": 12, "value": 8158}, "F8": {"quality": 11, "value": 8030}, "Unknown": {"quality": 11, "value": 82}, "AF4": {"quality": 10, "value": 8174}, "AF3": {"quality": 10, "value": 8592}}'
p243
sbag2
(g3
g4
NtRp244
(dp245
g7
I2
sg8
I77
sg9
I00
sg10
S'Mo\x85\xcf8f\x1f\xe2x\x99\xf4\xd7\xe8\xc1\xa3\x00\x02\x15\xb8\x1f^\x84|\x99\xf8g\x90\x1b\x18ij\xf7'
p246
sg12
I-1
sg13
I1
sg14
S'{"P7": {"quality": 10, "value": 7914}, "FC6": {"quality": 10, "value": 7744}, "T7": {"quality": 13, "value": 7694}, "P8": {"quality": 6, "value": 8255}, "Y": {"quality": 0, "value": 2}, "X": {"quality": 0, "value": -3}, "O2": {"quality": 7, "value": 8414}, "O1": {"quality": 11, "value": 8037}, "FC5": {"quality": 11, "value": 7256}, "F3": {"quality": 9, "value": 7157}, "F4": {"quality": 9, "value": 7103}, "T8": {"quality": 9, "value": 7736}, "F7": {"quality": 12, "value": 8158}, "F8": {"quality": 11, "value": 8030}, "Unknown": {"quality": 11, "value": 82}, "AF4": {"quality": 10, "value": 8174}, "AF3": {"quality": 10, "value": 8592}}'
p247
sbag2
(g3
g4
NtRp248
(dp249
g7
I2
sg8
I78
sg9
I00
sg10
S'Noy\xcf8f\x9f\xe2x]\xf4g\xe9A\xba\x00\x02\x15h\x1f\x1e\x82|\x95\xf8G\x90[\x16ij\xc6'
p250
sg12
I-1
sg13
I1
sg14
S'{"P7": {"quality": 10, "value": 7914}, "FC6": {"quality": 10, "value": 7744}, "T7": {"quality": 13, "value": 7694}, "P8": {"quality": 6, "value": 8255}, "Y": {"quality": 0, "value": 2}, "X": {"quality": 0, "value": -3}, "O2": {"quality": 7, "value": 8414}, "O1": {"quality": 11, "value": 8037}, "FC5": {"quality": 11, "value": 7256}, "F3": {"quality": 9, "value": 7157}, "F4": {"quality": 9, "value": 7103}, "T8": {"quality": 9, "value": 7736}, "F7": {"quality": 12, "value": 8158}, "F8": {"quality": 11, "value": 8030}, "Unknown": {"quality": 11, "value": 82}, "AF4": {"quality": 10, "value": 8174}, "AF3": {"quality": 10, "value": 8592}}'
p251
sbag2
(g3
g4
NtRp252
(dp253
g7
I2
sg8
I79
sg9
I00
sg10
S"Oo\x8d\xd0Xg\x1f\xeax%\xf5\x07\xe9\xc1\xb5\x00\x02\x15\x18\x1c\x1e\x88|\xbd\xf9'\x92\x9b\x1dij\x84"
p254
sg12
I-1
sg13
I1
sg14
S'{"P7": {"quality": 10, "value": 7914}, "FC6": {"quality": 10, "value": 7744}, "T7": {"quality": 13, "value": 7694}, "P8": {"quality": 6, "value": 8255}, "Y": {"quality": 0, "value": 2}, "X": {"quality": 0, "value": -3}, "O2": {"quality": 7, "value": 8414}, "O1": {"quality": 11, "value": 8037}, "FC5": {"quality": 11, "value": 7256}, "F3": {"quality": 9, "value": 7157}, "F4": {"quality": 9, "value": 7103}, "T8": {"quality": 9, "value": 7736}, "F7": {"quality": 12, "value": 8158}, "F8": {"quality": 11, "value": 8030}, "Unknown": {"quality": 11, "value": 82}, "AF4": {"quality": 10, "value": 8174}, "AF3": {"quality": 10, "value": 8592}}'
p255
sbag2
(g3
g4
NtRp256
(dp257
g7
I2
sg8
I80
sg9
I00
sg10
S'Po]\xd0hb\x1f\xe6xa\xf5\x17\xe9\xc1\xab\x00\x02\x14\x98\x16\xde\x80|\xb1\xf8\xa7\x90\xdb\x1eijU'
p258
sg12
I-1
sg13
I1
sg14
S'{"P7": {"quality": 10, "value": 7914}, "FC6": {"quality": 10, "value": 7744}, "T7": {"quality": 13, "value": 7694}, "P8": {"quality": 6, "value": 8255}, "Y": {"quality": 0, "value": 2}, "X": {"quality": 0, "value": -3}, "O2": {"quality": 7, "value": 8414}, "O1": {"quality": 11, "value": 8037}, "FC5": {"quality": 11, "value": 7256}, "F3": {"quality": 9, "value": 7157}, "F4": {"quality": 9, "value": 7103}, "T8": {"quality": 9, "value": 7736}, "F7": {"quality": 12, "value": 8158}, "F8": {"quality": 11, "value": 8030}, "Unknown": {"quality": 11, "value": 82}, "AF4": {"quality": 10, "value": 8174}, "AF3": {"quality": 10, "value": 8592}}'
p259
sbag2
(g3
g4
NtRp260
(dp261
g7
I2
sg8
I81
sg9
I00
sg10
S'Qo-\xce\x88\\\x9f\xddx\xa1\xf5\x87\xea\x81\xa3\x00\x02\x13\xd8\x15\x9eh|I\xf6w\x89\xdb\nij%'
p262
sg12
I-1
sg13
I1
sg14
S'{"P7": {"quality": 10, "value": 7914}, "FC6": {"quality": 10, "value": 7744}, "T7": {"quality": 13, "value": 7694}, "P8": {"quality": 6, "value": 8255}, "Y": {"quality": 0, "value": 2}, "X": {"quality": 0, "value": -3}, "O2": {"quality": 7, "value": 8414}, "O1": {"quality": 11, "value": 8037}, "FC5": {"quality": 11, "value": 7256}, "F3": {"quality": 9, "value": 7157}, "F4": {"quality": 9, "value": 7103}, "T8": {"quality": 9, "value": 7736}, "F7": {"quality": 12, "value": 8158}, "F8": {"quality": 11, "value": 8030}, "Unknown": {"quality": 11, "value": 82}, "AF4": {"quality": 10, "value": 8174}, "AF3": {"quality": 10, "value": 8592}}'
p263
sbag2
(g3
g4
NtRp264
(dp265
g7
I2
sg8
I82
sg9
I00
sg10
S'Ro5\xcd\xe8[_\xe8x\x91\xf5\xf7\xec\x01\xba\x00\x02\x14x\x16\xdej|\r\xf6\x17\x87\x1a\xffij\x04'
p266
sg12
I-1
sg13
I1
sg14
S'{"P7": {"quality": 10, "value": 7914}, "FC6": {"quality": 10, "value": 7744}, "T7": {"quality": 13, "value": 7694}, "P8": {"quality": 6, "value": 8255}, "Y": {"quality": 0, "value": 2}, "X": {"quality": 0, "value": -3}, "O2": {"quality": 7, "value": 8414}, "O1": {"quality": 11, "value": 8037}, "FC5": {"quality": 11, "value": 7256}, "F3": {"quality": 9, "value": 7157}, "F4": {"quality": 9, "value": 7103}, "T8": {"quality": 9, "value": 7736}, "F7": {"quality": 12, "value": 8158}, "F8": {"quality": 11, "value": 8030}, "Unknown": {"quality": 11, "value": 82}, "AF4": {"quality": 10, "value": 8174}, "AF3": {"quality": 10, "value": 8592}}'
p267
sbag2
(g3
g4
NtRp268
(dp269
g7
I2
sg8
I83
sg9
I00
sg10
S'SoM\xce\xe8^\x1f\xfdx\x8d\xf57\xea\x81\xb5\x00\x02\x168\x15\x9e\x7f|e\xf7\xa7\x8b[\rhj\xc4'
p270
sg12
I-2
sg13
I1
sg14
S'{"P7": {"quality": 10, "value": 7914}, "FC6": {"quality": 10, "value": 7744}, "T7": {"quality": 13, "value": 7694}, "P8": {"quality": 6, "value": 8255}, "Y": {"quality": 0, "value": 2}, "X": {"quality": 0, "value": -3}, "O2": {"quality": 7, "value": 8414}, "O1": {"quality": 11, "value": 8037}, "FC5": {"quality": 11, "value": 7256}, "F3": {"quality": 9, "value": 7157}, "F4": {"quality": 9, "value": 7103}, "T8": {"quality": 9, "value": 7736}, "F7": {"quality": 12, "value": 8158}, "F8": {"quality": 11, "value": 8030}, "Unknown": {"quality": 11, "value": 82}, "AF4": {"quality": 10, "value": 8174}, "AF3": {"quality": 10, "value": 8592}}'
p271
sbag2
(g3
g4
NtRp272
(dp273
g7
I2
sg8
I84
sg9
I00
sg10
S'To\x81\xcfH_\xa0\x03x\xa9\xf4g\xe7\x81\xab\x00\x02\x16\x88\x14\xde\x81|\xad\xf8\x87\x8e\xdb#hj\xb4'
p274
sg12
I-2
sg13
I1
sg14
S'{"P7": {"quality": 10, "value": 7914}, "FC6": {"quality": 10, "value": 7744}, "T7": {"quality": 13, "value": 7694}, "P8": {"quality": 6, "value": 8255}, "Y": {"quality": 0, "value": 2}, "X": {"quality": 0, "value": -3}, "O2": {"quality": 7, "value": 8414}, "O1": {"quality": 11, "value": 8037}, "FC5": {"quality": 11, "value": 7256}, "F3": {"quality": 9, "value": 7157}, "F4": {"quality": 9, "value": 7103}, "T8": {"quality": 9, "value": 7736}, "F7": {"quality": 12, "value": 8158}, "F8": {"quality": 11, "value": 8030}, "Unknown": {"quality": 11, "value": 82}, "AF4": {"quality": 10, "value": 8174}, "AF3": {"quality": 10, "value": 8592}}'
p275
sbag2
(g3
g4
NtRp276
(dp277
g7
I2
sg8
I85
sg9
I00
sg10
S'Uo\xad\xcf\x98_ \x01x\xa5\xf4\xa7\xe7\x01\xa3\x00\x02\x15\xe8\x14^y|\x91\xf8\xe7\x8e\x9b.hj\x83'
p278
sg12
I-2
sg13
I1
sg14
S'{"P7": {"quality": 10, "value": 7914}, "FC6": {"quality": 10, "value": 7744}, "T7": {"quality": 13, "value": 7694}, "P8": {"quality": 6, "value": 8255}, "Y": {"quality": 0, "value": 2}, "X": {"quality": 0, "value": -3}, "O2": {"quality": 7, "value": 8414}, "O1": {"quality": 11, "value": 8037}, "FC5": {"quality": 11, "value": 7256}, "F3": {"quality": 9, "value": 7157}, "F4": {"quality": 9, "value": 7103}, "T8": {"quality": 9, "value": 7736}, "F7": {"quality": 12, "value": 8158}, "F8": {"quality": 11, "value": 8030}, "Unknown": {"quality": 11, "value": 82}, "AF4": {"quality": 10, "value": 8174}, "AF3": {"quality": 10, "value": 8592}}'
p279
sbag2
(g3
g4
NtRp280
(dp281
g7
I2
sg8
I86
sg9
I00
sg10
S'Vo\xb1\xd1\x08` \x02x\xad\xf4\xd7\xe7A\xba\x00\x02\x15\xe8\x14\x9e~|\x85\xfa\x07\x8f[0hjc'
p282
sg12
I-2
sg13
I1
sg14
S'{"P7": {"quality": 10, "value": 7914}, "FC6": {"quality": 10, "value": 7744}, "T7": {"quality": 13, "value": 7694}, "P8": {"quality": 6, "value": 8255}, "Y": {"quality": 0, "value": 2}, "X": {"quality": 0, "value": -3}, "O2": {"quality": 7, "value": 8414}, "O1": {"quality": 11, "value": 8037}, "FC5": {"quality": 11, "value": 7256}, "F3": {"quality": 9, "value": 7157}, "F4": {"quality": 9, "value": 7103}, "T8": {"quality": 9, "value": 7736}, "F7": {"quality": 12, "value": 8158}, "F8": {"quality": 11, "value": 8030}, "Unknown": {"quality": 11, "value": 82}, "AF4": {"quality": 10, "value": 8174}, "AF3": {"quality": 10, "value": 8592}}'
p283
sbag2
(g3
g4
NtRp284
(dp285
g7
I2
sg8
I87
sg9
I00
sg10
S'Wo\xad\xd1\xc8a\xa0\x07x\xbd\xf4\x97\xe6A\xb5\x00\x02\x16h\x16^\x8b|\xd9\xfa\x97\x92\xdb=hjb'
p286
sg12
I-2
sg13
I1
sg14
S'{"P7": {"quality": 10, "value": 7914}, "FC6": {"quality": 10, "value": 7744}, "T7": {"quality": 13, "value": 7694}, "P8": {"quality": 6, "value": 8255}, "Y": {"quality": 0, "value": 2}, "X": {"quality": 0, "value": -3}, "O2": {"quality": 7, "value": 8414}, "O1": {"quality": 11, "value": 8037}, "FC5": {"quality": 11, "value": 7256}, "F3": {"quality": 9, "value": 7157}, "F4": {"quality": 9, "value": 7103}, "T8": {"quality": 9, "value": 7736}, "F7": {"quality": 12, "value": 8158}, "F8": {"quality": 11, "value": 8030}, "Unknown": {"quality": 11, "value": 82}, "AF4": {"quality": 10, "value": 8174}, "AF3": {"quality": 10, "value": 8592}}'
p287
sbag2
(g3
g4
NtRp288
(dp289
g7
I2
sg8
I88
sg9
I00
sg10
S'Xo\xb5\xd0\xe8`\xe0\x02x\xad\xf4\x87\xe6\x81\xab\x00\x02\x16\xe8\x17\xde\x92|\xf9\xfa7\x94\x9bLhjR'
p290
sg12
I-2
sg13
I1
sg14
S'{"P7": {"quality": 10, "value": 7914}, "FC6": {"quality": 10, "value": 7744}, "T7": {"quality": 13, "value": 7694}, "P8": {"quality": 6, "value": 8255}, "Y": {"quality": 0, "value": 2}, "X": {"quality": 0, "value": -3}, "O2": {"quality": 7, "value": 8414}, "O1": {"quality": 11, "value": 8037}, "FC5": {"quality": 11, "value": 7256}, "F3": {"quality": 9, "value": 7157}, "F4": {"quality": 9, "value": 7103}, "T8": {"quality": 9, "value": 7736}, "F7": {"quality": 12, "value": 8158}, "F8": {"quality": 11, "value": 8030}, "Unknown": {"quality": 11, "value": 82}, "AF4": {"quality": 10, "value": 8174}, "AF3": {"quality": 10, "value": 8592}}'
p291
sbag2
(g3
g4
NtRp292
(dp293
g7
I2
sg8
I89
sg9
I00
sg10
S'Yo\xb5\xd0\x08__\xfcx\x9d\xf4W\xe7\xc1\xa3\x00\x02\x16\xa8\x17^\x8f|\xad\xfa\x17\x92\x1bFhjB'
p294
sg12
I-2
sg13
I1
sg14
S'{"P7": {"quality": 10, "value": 7914}, "FC6": {"quality": 10, "value": 7744}, "T7": {"quality": 13, "value": 7694}, "P8": {"quality": 6, "value": 8255}, "Y": {"quality": 0, "value": 2}, "X": {"quality": 0, "value": -3}, "O2": {"quality": 7, "value": 8414}, "O1": {"quality": 11, "value": 8037}, "FC5": {"quality": 11, "value": 7256}, "F3": {"quality": 9, "value": 7157}, "F4": {"quality": 9, "value": 7103}, "T8": {"quality": 9, "value": 7736}, "F7": {"quality": 12, "value": 8158}, "F8": {"quality": 11, "value": 8030}, "Unknown": {"quality": 11, "value": 82}, "AF4": {"quality": 10, "value": 8174}, "AF3": {"quality": 10, "value": 8592}}'
p295
sbag2
(g3
g4
NtRp296
(dp297
g7
I2
sg8
I90
sg9
I00
sg10
S'Zo\xb9\xd0X`\xa0\x0fx\xad\xf4W\xe7\x81\xba\x00\x02\x16h\x17\x9e\x95|\xbd\xf9\xf7\x90\x1b;hj#'
p298
sg12
I-2
sg13
I1
sg14
S'{"P7": {"quality": 10, "value": 7914}, "FC6": {"quality": 10, "value": 7744}, "T7": {"quality": 13, "value": 7694}, "P8": {"quality": 6, "value": 8255}, "Y": {"quality": 0, "value": 2}, "X": {"quality": 0, "value": -3}, "O2": {"quality": 7, "value": 8414}, "O1": {"quality": 11, "value": 8037}, "FC5": {"quality": 11, "value": 7256}, "F3": {"quality": 9, "value": 7157}, "F4": {"quality": 9, "value": 7103}, "T8": {"quality": 9, "value": 7736}, "F7": {"quality": 12, "value": 8158}, "F8": {"quality": 11, "value": 8030}, "Unknown": {"quality": 11, "value": 82}, "AF4": {"quality": 10, "value": 8174}, "AF3": {"quality": 10, "value": 8592}}'
p299
sbag2
(g3
g4
NtRp300
(dp301
g7
I2
sg8
I91
sg9
I00
sg10
S'[o\xc9\xd1\x18a\xa0\x1dx\xb5\xf4\xf7\xe9\x01\xb5\x00\x02\x16\xf8\x18\x9e\xa1}\x11\xfa\x07\x92\x1b=hj\x13'
p302
sg12
I-2
sg13
I1
sg14
S'{"P7": {"quality": 10, "value": 7914}, "FC6": {"quality": 10, "value": 7744}, "T7": {"quality": 13, "value": 7694}, "P8": {"quality": 6, "value": 8255}, "Y": {"quality": 0, "value": 2}, "X": {"quality": 0, "value": -3}, "O2": {"quality": 7, "value": 8414}, "O1": {"quality": 11, "value": 8037}, "FC5": {"quality": 11, "value": 7256}, "F3": {"quality": 9, "value": 7157}, "F4": {"quality": 9, "value": 7103}, "T8": {"quality": 9, "value": 7736}, "F7": {"quality": 12, "value": 8158}, "F8": {"quality": 11, "value": 8030}, "Unknown": {"quality": 11, "value": 82}, "AF4": {"quality": 10, "value": 8174}, "AF3": {"quality": 10, "value": 8592}}'
p303
sbag2
(g3
g4
NtRp304
(dp305
g7
I2
sg8
I92
sg9
I00
sg10
S"\\o\xc9\xd1\x18_\xe0\tx\xa1\xf4\x97\xea\xc1\xab\x00\x02\x178\x17\xde\x95|\xf1\xfa'\x90\xdb@gj\xf4"
p306
sg12
I-3
sg13
I1
sg14
S'{"P7": {"quality": 10, "value": 7914}, "FC6": {"quality": 10, "value": 7744}, "T7": {"quality": 13, "value": 7694}, "P8": {"quality": 6, "value": 8255}, "Y": {"quality": 0, "value": 2}, "X": {"quality": 0, "value": -3}, "O2": {"quality": 7, "value": 8414}, "O1": {"quality": 11, "value": 8037}, "FC5": {"quality": 11, "value": 7256}, "F3": {"quality": 9, "value": 7157}, "F4": {"quality": 9, "value": 7103}, "T8": {"quality": 9, "value": 7736}, "F7": {"quality": 12, "value": 8158}, "F8": {"quality": 11, "value": 8030}, "Unknown": {"quality": 11, "value": 82}, "AF4": {"quality": 10, "value": 8174}, "AF3": {"quality": 10, "value": 8592}}'
p307
sbag2
(g3
g4
NtRp308
(dp309
g7
I2
sg8
I93
sg9
I00
sg10
S']o\xbd\xd0\xa8_\xa0\x02x\x99\xf3w\xe9\x01\xa3\x00\x02\x16\xa8\x16\xde\x8c|\xc5\xfag\x8e\xdbFgj\xe5'
p310
sg12
I-3
sg13
I1
sg14
S'{"P7": {"quality": 10, "value": 7914}, "FC6": {"quality": 10, "value": 7744}, "T7": {"quality": 13, "value": 7694}, "P8": {"quality": 6, "value": 8255}, "Y": {"quality": 0, "value": 2}, "X": {"quality": 0, "value": -3}, "O2": {"quality": 7, "value": 8414}, "O1": {"quality": 11, "value": 8037}, "FC5": {"quality": 11, "value": 7256}, "F3": {"quality": 9, "value": 7157}, "F4": {"quality": 9, "value": 7103}, "T8": {"quality": 9, "value": 7736}, "F7": {"quality": 12, "value": 8158}, "F8": {"quality": 11, "value": 8030}, "Unknown": {"quality": 11, "value": 82}, "AF4": {"quality": 10, "value": 8174}, "AF3": {"quality": 10, "value": 8592}}'
p311
sbag2
(g3
g4
NtRp312
(dp313
g7
I2
sg8
I94
sg9
I00
sg10
S'^o\xb1\xd0Xa`\x19x\x99\xf3g\xeaA\xba\x00\x02\x16\xc8\x18\x1e\x9a|\xfd\xfb\x17\x91\x9bWgj\xd6'
p314
sg12
I-3
sg13
I1
sg14
S'{"P7": {"quality": 10, "value": 7914}, "FC6": {"quality": 10, "value": 7744}, "T7": {"quality": 13, "value": 7694}, "P8": {"quality": 6, "value": 8255}, "Y": {"quality": 0, "value": 2}, "X": {"quality": 0, "value": -3}, "O2": {"quality": 7, "value": 8414}, "O1": {"quality": 11, "value": 8037}, "FC5": {"quality": 11, "value": 7256}, "F3": {"quality": 9, "value": 7157}, "F4": {"quality": 9, "value": 7103}, "T8": {"quality": 9, "value": 7736}, "F7": {"quality": 12, "value": 8158}, "F8": {"quality": 11, "value": 8030}, "Unknown": {"quality": 11, "value": 82}, "AF4": {"quality": 10, "value": 8174}, "AF3": {"quality": 10, "value": 8592}}'
p315
sbag2
(g3
g4
NtRp316
(dp317
g7
I2
sg8
I95
sg9
I00
sg10
S"_o\xad\xd0\x08_` x\xa5\xf4'\xef\x81\xb5\x00\x02\x17\xa8\x18\x1e\x9d}\x01\xfbg\x91\x1bWgj\xc5"
p318
sg12
I-3
sg13
I1
sg14
S'{"P7": {"quality": 10, "value": 7914}, "FC6": {"quality": 10, "value": 7744}, "T7": {"quality": 13, "value": 7694}, "P8": {"quality": 6, "value": 8255}, "Y": {"quality": 0, "value": 2}, "X": {"quality": 0, "value": -3}, "O2": {"quality": 7, "value": 8414}, "O1": {"quality": 11, "value": 8037}, "FC5": {"quality": 11, "value": 7256}, "F3": {"quality": 9, "value": 7157}, "F4": {"quality": 9, "value": 7103}, "T8": {"quality": 9, "value": 7736}, "F7": {"quality": 12, "value": 8158}, "F8": {"quality": 11, "value": 8030}, "Unknown": {"quality": 11, "value": 82}, "AF4": {"quality": 10, "value": 8174}, "AF3": {"quality": 10, "value": 8592}}'
p319
sbag2
(g3
g4
NtRp320
(dp321
g7
I2
sg8
I96
sg9
I00
sg10
S'`o\xad\xcf\xd8` \x15x\xcd\xf4\xb7\xeeA\xab\x00\x02\x17\x88\x16\xde\x96|\xed\xfc\x07\x90\x9bUgj\xc6'
p322
sg12
I-3
sg13
I1
sg14
S'{"P7": {"quality": 10, "value": 7914}, "FC6": {"quality": 10, "value": 7744}, "T7": {"quality": 13, "value": 7694}, "P8": {"quality": 6, "value": 8255}, "Y": {"quality": 0, "value": 2}, "X": {"quality": 0, "value": -3}, "O2": {"quality": 7, "value": 8414}, "O1": {"quality": 11, "value": 8037}, "FC5": {"quality": 11, "value": 7256}, "F3": {"quality": 9, "value": 7157}, "F4": {"quality": 9, "value": 7103}, "T8": {"quality": 9, "value": 7736}, "F7": {"quality": 12, "value": 8158}, "F8": {"quality": 11, "value": 8030}, "Unknown": {"quality": 11, "value": 82}, "AF4": {"quality": 10, "value": 8174}, "AF3": {"quality": 10, "value": 8592}}'
p323
sbag2
(g3
g4
NtRp324
(dp325
g7
I2
sg8
I97
sg9
I00
sg10
S'ao\xb9\xcf\x98d\xe0\x12x\xed\xf4\x17\xe8\x01\xa3\x00\x02\x17h\x18\x9e\xa0}!\xfc\xf7\x97[ggj\xc5'
p326
sg12
I-3
sg13
I1
sg14
S'{"P7": {"quality": 10, "value": 7914}, "FC6": {"quality": 10, "value": 7744}, "T7": {"quality": 13, "value": 7694}, "P8": {"quality": 6, "value": 8255}, "Y": {"quality": 0, "value": 2}, "X": {"quality": 0, "value": -3}, "O2": {"quality": 7, "value": 8414}, "O1": {"quality": 11, "value": 8037}, "FC5": {"quality": 11, "value": 7256}, "F3": {"quality": 9, "value": 7157}, "F4": {"quality": 9, "value": 7103}, "T8": {"quality": 9, "value": 7736}, "F7": {"quality": 12, "value": 8158}, "F8": {"quality": 11, "value": 8030}, "Unknown": {"quality": 11, "value": 82}, "AF4": {"quality": 10, "value": 8174}, "AF3": {"quality": 10, "value": 8592}}'
p327
sbag2
(g3
g4
NtRp328
(dp329
g7
I2
sg8
I98
sg9
I00
sg10
S'bo\xc1\xce\xb8b\xa0\x12x\xf5\xf3W\xea\xc1\xba\x00\x02\x17\xc8\x1b\x1e\xa6}%\xfcG\x96\xdbrgj\xb6'
p330
sg12
I-3
sg13
I1
sg14
S'{"P7": {"quality": 10, "value": 7914}, "FC6": {"quality": 10, "value": 7744}, "T7": {"quality": 13, "value": 7694}, "P8": {"quality": 6, "value": 8255}, "Y": {"quality": 0, "value": 2}, "X": {"quality": 0, "value": -3}, "O2": {"quality": 7, "value": 8414}, "O1": {"quality": 11, "value": 8037}, "FC5": {"quality": 11, "value": 7256}, "F3": {"quality": 9, "value": 7157}, "F4": {"quality": 9, "value": 7103}, "T8": {"quality": 9, "value": 7736}, "F7": {"quality": 12, "value": 8158}, "F8": {"quality": 11, "value": 8030}, "Unknown": {"quality": 11, "value": 82}, "AF4": {"quality": 10, "value": 8174}, "AF3": {"quality": 10, "value": 8592}}'
p331
sbag2
(g3
g4
NtRp332
(dp333
g7
I2
sg8
I99
sg9
I00
sg10
S"co\xb1\xce\x98^ \x19y\x11\xf4\x07\xef\xc1\xb5\x00\x02\x17\x18\x18^\x90}\x01\xfc'\x90\xdbngj\xc6"
p334
sg12
I-3
sg13
I1
sg14
S'{"P7": {"quality": 10, "value": 7914}, "FC6": {"quality": 10, "value": 7744}, "T7": {"quality": 13, "value": 7694}, "P8": {"quality": 6, "value": 8255}, "Y": {"quality": 0, "value": 2}, "X": {"quality": 0, "value": -3}, "O2": {"quality": 7, "value": 8414}, "O1": {"quality": 11, "value": 8037}, "FC5": {"quality": 11, "value": 7256}, "F3": {"quality": 9, "value": 7157}, "F4": {"quality": 9, "value": 7103}, "T8": {"quality": 9, "value": 7736}, "F7": {"quality": 12, "value": 8158}, "F8": {"quality": 11, "value": 8030}, "Unknown": {"quality": 11, "value": 82}, "AF4": {"quality": 10, "value": 8174}, "AF3": {"quality": 10, "value": 8592}}'
p335
sbag2
(g3
g4
NtRp336
(dp337
g7
I2
sg8
I100
sg9
I00
sg10
S'do\xb5\xcf\xd8c\xe0"y1\xf4W\xea\xc1\xab\x00\x02\x15\xc8\x15^\x88}5\xff\xe7\x95\x9bmgj\xca'
p338
sg12
I-3
sg13
I1
sg14
S'{"P7": {"quality": 10, "value": 7914}, "FC6": {"quality": 10, "value": 7744}, "T7": {"quality": 13, "value": 7694}, "P8": {"quality": 6, "value": 8255}, "Y": {"quality": 0, "value": 2}, "X": {"quality": 0, "value": -3}, "O2": {"quality": 7, "value": 8414}, "O1": {"quality": 11, "value": 8037}, "FC5": {"quality": 11, "value": 7256}, "F3": {"quality": 9, "value": 7157}, "F4": {"quality": 9, "value": 7103}, "T8": {"quality": 9, "value": 7736}, "F7": {"quality": 12, "value": 8158}, "F8": {"quality": 11, "value": 8030}, "Unknown": {"quality": 11, "value": 82}, "AF4": {"quality": 10, "value": 8174}, "AF3": {"quality": 10, "value": 8592}}'
p339
sbag2
(g3
g4
NtRp340
(dp341
g7
I2
sg8
I101
sg9
I00
sg10
S'ep\x05\xd0Xm\xa0%y\x1d\xf37\xe6\xc1\xa3\x00\x02\x15\xe8\x17\x1e\x9a}\x9a\x03W\x9f\xdb\x81gj\xdd'
p342
sg12
I-3
sg13
I1
sg14
S'{"P7": {"quality": 10, "value": 7914}, "FC6": {"quality": 10, "value": 7744}, "T7": {"quality": 13, "value": 7694}, "P8": {"quality": 6, "value": 8255}, "Y": {"quality": 0, "value": 2}, "X": {"quality": 0, "value": -3}, "O2": {"quality": 7, "value": 8414}, "O1": {"quality": 11, "value": 8037}, "FC5": {"quality": 11, "value": 7256}, "F3": {"quality": 9, "value": 7157}, "F4": {"quality": 9, "value": 7103}, "T8": {"quality": 9, "value": 7736}, "F7": {"quality": 12, "value": 8158}, "F8": {"quality": 11, "value": 8030}, "Unknown": {"quality": 11, "value": 82}, "AF4": {"quality": 10, "value": 8174}, "AF3": {"quality": 10, "value": 8592}}'
p343
sbag2
(g3
g4
NtRp344
(dp345
g7
I2
sg8
I29
sg9
I00
sg10
S'\x1dp\xb1\xcbXf\xa0?yq\xf1\x87\xeb\x80\x00\x00\x02\x10\x08\x17^\x82~5\xff\xc7\x9a[\xc1gj\xbf'
p346
sg12
I-3
sg13
I1
sg14
S'{"P7": {"quality": 10, "value": 7914}, "FC6": {"quality": 10, "value": 7744}, "T7": {"quality": 13, "value": 7694}, "P8": {"quality": 6, "value": 8255}, "Y": {"quality": 0, "value": 2}, "X": {"quality": 0, "value": -3}, "O2": {"quality": 7, "value": 8414}, "O1": {"quality": 11, "value": 8037}, "FC5": {"quality": 11, "value": 7256}, "F3": {"quality": 9, "value": 7157}, "F4": {"quality": 9, "value": 7103}, "T8": {"quality": 9, "value": 7736}, "F7": {"quality": 12, "value": 8158}, "F8": {"quality": 11, "value": 8030}, "Unknown": {"quality": 11, "value": 82}, "AF4": {"quality": 10, "value": 8174}, "AF3": {"quality": 10, "value": 8592}}'
p347
sbag2
(g3
g4
NtRp348
(dp349
g7
I2
sg8
I30
sg9
I00
sg10
S'\x1ep\xbd\xcbxj`Ay\x81\xf1\xc7\xec\x00\x00\x00\x02\x10\x98\x19\x1e\x81~v\x00\x07\x9b\x1b\xc1gk\x90'
p350
sg12
I-3
sg13
I2
sg14
S'{"P7": {"quality": 10, "value": 7914}, "FC6": {"quality": 10, "value": 7744}, "T7": {"quality": 13, "value": 7694}, "P8": {"quality": 6, "value": 8255}, "Y": {"quality": 0, "value": 2}, "X": {"quality": 0, "value": -3}, "O2": {"quality": 7, "value": 8414}, "O1": {"quality": 11, "value": 8037}, "FC5": {"quality": 11, "value": 7256}, "F3": {"quality": 9, "value": 7157}, "F4": {"quality": 9, "value": 7103}, "T8": {"quality": 9, "value": 7736}, "F7": {"quality": 12, "value": 8158}, "F8": {"quality": 11, "value": 8030}, "Unknown": {"quality": 11, "value": 82}, "AF4": {"quality": 10, "value": 8174}, "AF3": {"quality": 10, "value": 8592}}'
p351
sbag2
(g3
g4
NtRp352
(dp353
g7
I2
sg8
I31
sg9
I00
sg10
S'\x1fp\x85\xca\xd8h ;yM\xf0\xe7\xe8@\x00\x00\x02\x10(\x18\x1e\x80~5\xff\xd7\x9b\xdb\xc8gk\xa0'
p354
sg12
I-3
sg13
I2
sg14
S'{"P7": {"quality": 10, "value": 7914}, "FC6": {"quality": 10, "value": 7744}, "T7": {"quality": 13, "value": 7694}, "P8": {"quality": 6, "value": 8255}, "Y": {"quality": 0, "value": 2}, "X": {"quality": 0, "value": -3}, "O2": {"quality": 7, "value": 8414}, "O1": {"quality": 11, "value": 8037}, "FC5": {"quality": 11, "value": 7256}, "F3": {"quality": 9, "value": 7157}, "F4": {"quality": 9, "value": 7103}, "T8": {"quality": 9, "value": 7736}, "F7": {"quality": 12, "value": 8158}, "F8": {"quality": 11, "value": 8030}, "Unknown": {"quality": 11, "value": 82}, "AF4": {"quality": 10, "value": 8174}, "AF3": {"quality": 10, "value": 8592}}'
p355
sbag2
(g3
g4
NtRp356
(dp357
g7
I2
sg8
I32
sg9
I00
sg10
S' p\x99\xcb8j AyE\xf0w\xea\x80\x00\x00\x02\x10X\x16\xde\x80~6\x00\xd7\x9e\x9b\xd7gj\x9e'
p358
sg12
I-3
sg13
I1
sg14
S'{"P7": {"quality": 10, "value": 7914}, "FC6": {"quality": 10, "value": 7744}, "T7": {"quality": 13, "value": 7694}, "P8": {"quality": 6, "value": 8255}, "Y": {"quality": 0, "value": 2}, "X": {"quality": 0, "value": -3}, "O2": {"quality": 7, "value": 8414}, "O1": {"quality": 11, "value": 8037}, "FC5": {"quality": 11, "value": 7256}, "F3": {"quality": 9, "value": 7157}, "F4": {"quality": 9, "value": 7103}, "T8": {"quality": 9, "value": 7736}, "F7": {"quality": 12, "value": 8158}, "F8": {"quality": 11, "value": 8030}, "Unknown": {"quality": 11, "value": 82}, "AF4": {"quality": 10, "value": 8174}, "AF3": {"quality": 10, "value": 8592}}'
p359
sbag2
(g3
g4
NtRp360
(dp361
g7
I2
sg8
I33
sg9
I00
sg10
S'!p\xc1\xcc8o`Ky=\xf17\xf1\x00\x00\x00\x02\x11\x18\x17^|~\x92\x01\xf7\xa1\x9b\xeagk\x90'
p362
sg12
I-3
sg13
I2
sg14
S'{"P7": {"quality": 10, "value": 7914}, "FC6": {"quality": 10, "value": 7744}, "T7": {"quality": 13, "value": 7694}, "P8": {"quality": 6, "value": 8255}, "Y": {"quality": 0, "value": 2}, "X": {"quality": 0, "value": -3}, "O2": {"quality": 7, "value": 8414}, "O1": {"quality": 11, "value": 8037}, "FC5": {"quality": 11, "value": 7256}, "F3": {"quality": 9, "value": 7157}, "F4": {"quality": 9, "value": 7103}, "T8": {"quality": 9, "value": 7736}, "F7": {"quality": 12, "value": 8158}, "F8": {"quality": 11, "value": 8030}, "Unknown": {"quality": 11, "value": 82}, "AF4": {"quality": 10, "value": 8174}, "AF3": {"quality": 10, "value": 8592}}'
p363
sbag2
(g3
g4
NtRp364
(dp365
g7
I2
sg8
I34
sg9
I00
sg10
S'"p\xc5\xcc(o Uy]\xf1\xe7\xf2\xc0\x00\x00\x02\x10\xf8\x18\xde\x81~\xb2\x037\xa4\xdb\xffgk\x90'
p366
sg12
I-3
sg13
I2
sg14
S'{"P7": {"quality": 10, "value": 7914}, "FC6": {"quality": 10, "value": 7744}, "T7": {"quality": 13, "value": 7694}, "P8": {"quality": 6, "value": 8255}, "Y": {"quality": 0, "value": 2}, "X": {"quality": 0, "value": -3}, "O2": {"quality": 7, "value": 8414}, "O1": {"quality": 11, "value": 8037}, "FC5": {"quality": 11, "value": 7256}, "F3": {"quality": 9, "value": 7157}, "F4": {"quality": 9, "value": 7103}, "T8": {"quality": 9, "value": 7736}, "F7": {"quality": 12, "value": 8158}, "F8": {"quality": 11, "value": 8030}, "Unknown": {"quality": 11, "value": 82}, "AF4": {"quality": 10, "value": 8174}, "AF3": {"quality": 10, "value": 8592}}'
p367
sbag2
(g3
g4
NtRp368
(dp369
g7
I2
sg8
I35
sg9
I00
sg10
S"#p\xc1\xcb\x18n\xa0Vy\x91\xf1'\xee\x80\x00\x00\x02\x10\x88\x18^\x83~\x9a\x03\xe7\xa5\x9c\x02gk\x81"
p370
sg12
I-3
sg13
I2
sg14
S'{"P7": {"quality": 10, "value": 7914}, "FC6": {"quality": 10, "value": 7744}, "T7": {"quality": 13, "value": 7694}, "P8": {"quality": 6, "value": 8255}, "Y": {"quality": 0, "value": 2}, "X": {"quality": 0, "value": -3}, "O2": {"quality": 7, "value": 8414}, "O1": {"quality": 11, "value": 8037}, "FC5": {"quality": 11, "value": 7256}, "F3": {"quality": 9, "value": 7157}, "F4": {"quality": 9, "value": 7103}, "T8": {"quality": 9, "value": 7736}, "F7": {"quality": 12, "value": 8158}, "F8": {"quality": 11, "value": 8030}, "Unknown": {"quality": 11, "value": 82}, "AF4": {"quality": 10, "value": 8174}, "AF3": {"quality": 10, "value": 8592}}'
p371
sbag2
(g3
g4
NtRp372
(dp373
g7
I2
sg8
I36
sg9
I00
sg10
S'$p\xb5\xca\x18n\xa0Iyi\xf0\x97\xea@\x00\x00\x02\x10\xa8\x16\x1eq~\x96\x02\xc7\xa1\x9b\xf3gk\x81'
p374
sg12
I-3
sg13
I2
sg14
S'{"P7": {"quality": 10, "value": 7914}, "FC6": {"quality": 10, "value": 7744}, "T7": {"quality": 13, "value": 7694}, "P8": {"quality": 6, "value": 8255}, "Y": {"quality": 0, "value": 2}, "X": {"quality": 0, "value": -3}, "O2": {"quality": 7, "value": 8414}, "O1": {"quality": 11, "value": 8037}, "FC5": {"quality": 11, "value": 7256}, "F3": {"quality": 9, "value": 7157}, "F4": {"quality": 9, "value": 7103}, "T8": {"quality": 9, "value": 7736}, "F7": {"quality": 12, "value": 8158}, "F8": {"quality": 11, "value": 8030}, "Unknown": {"quality": 11, "value": 82}, "AF4": {"quality": 10, "value": 8174}, "AF3": {"quality": 10, "value": 8592}}'
p375
sbag2
(g3
g4
NtRp376
(dp377
g7
I2
sg8
I37
sg9
I00
sg10
S'%p\xc1\xcaHk\xa0Jy!\xf0\xe7\xeb\x80\x00\x00\x02\x10\x88\x16\x1ee~\x9a\x01\xd7\x9f\x9b\xf1gk\x91'
p378
sg12
I-3
sg13
I2
sg14
S'{"P7": {"quality": 10, "value": 7914}, "FC6": {"quality": 10, "value": 7744}, "T7": {"quality": 13, "value": 7694}, "P8": {"quality": 6, "value": 8255}, "Y": {"quality": 0, "value": 2}, "X": {"quality": 0, "value": -3}, "O2": {"quality": 7, "value": 8414}, "O1": {"quality": 11, "value": 8037}, "FC5": {"quality": 11, "value": 7256}, "F3": {"quality": 9, "value": 7157}, "F4": {"quality": 9, "value": 7103}, "T8": {"quality": 9, "value": 7736}, "F7": {"quality": 12, "value": 8158}, "F8": {"quality": 11, "value": 8030}, "Unknown": {"quality": 11, "value": 82}, "AF4": {"quality": 10, "value": 8174}, "AF3": {"quality": 10, "value": 8592}}'
p379
sbag2
(g3
g4
NtRp380
(dp381
g7
I2
sg8
I38
sg9
I00
sg10
S'&p\xf9\xcb8k`Yy\x19\xf0\x97\xee\x80\x00\x00\x02\x10\x18\x18\x1eq~\x92\x02\x87\xa2\x9b\xfegj\xaf'
p382
sg12
I-3
sg13
I1
sg14
S'{"P7": {"quality": 10, "value": 7914}, "FC6": {"quality": 10, "value": 7744}, "T7": {"quality": 13, "value": 7694}, "P8": {"quality": 6, "value": 8255}, "Y": {"quality": 0, "value": 2}, "X": {"quality": 0, "value": -3}, "O2": {"quality": 7, "value": 8414}, "O1": {"quality": 11, "value": 8037}, "FC5": {"quality": 11, "value": 7256}, "F3": {"quality": 9, "value": 7157}, "F4": {"quality": 9, "value": 7103}, "T8": {"quality": 9, "value": 7736}, "F7": {"quality": 12, "value": 8158}, "F8": {"quality": 11, "value": 8030}, "Unknown": {"quality": 11, "value": 82}, "AF4": {"quality": 10, "value": 8174}, "AF3": {"quality": 10, "value": 8592}}'
p383
sbag2
(g3
g4
NtRp384
(dp385
g7
I2
sg8
I39
sg9
I00
sg10
S"'p\xfd\xcb\xa8n`Xy\x19\xf0g\xf0\x00\x00\x00\x02\x10H\x18^j~\x86\x02\xa7\xa2\x9c\x00gk\x90"
p386
sg12
I-3
sg13
I2
sg14
S'{"P7": {"quality": 10, "value": 7914}, "FC6": {"quality": 10, "value": 7744}, "T7": {"quality": 13, "value": 7694}, "P8": {"quality": 6, "value": 8255}, "Y": {"quality": 0, "value": 2}, "X": {"quality": 0, "value": -3}, "O2": {"quality": 7, "value": 8414}, "O1": {"quality": 11, "value": 8037}, "FC5": {"quality": 11, "value": 7256}, "F3": {"quality": 9, "value": 7157}, "F4": {"quality": 9, "value": 7103}, "T8": {"quality": 9, "value": 7736}, "F7": {"quality": 12, "value": 8158}, "F8": {"quality": 11, "value": 8030}, "Unknown": {"quality": 11, "value": 82}, "AF4": {"quality": 10, "value": 8174}, "AF3": {"quality": 10, "value": 8592}}'
p387
sbag2
(g3
g4
NtRp388
(dp389
g7
I2
sg8
I40
sg9
I00
sg10
S'(p\xc5\xcbHo Qy\x19\xf1g\xf0@\x00\x00\x02\x10\x88\x16\xdeM~\x86\x01\xe7\xa0\x1b\xf3gj\xbf'
p390
sg12
I-3
sg13
I1
sg14
S'{"P7": {"quality": 10, "value": 7914}, "FC6": {"quality": 10, "value": 7744}, "T7": {"quality": 13, "value": 7694}, "P8": {"quality": 6, "value": 8255}, "Y": {"quality": 0, "value": 2}, "X": {"quality": 0, "value": -3}, "O2": {"quality": 7, "value": 8414}, "O1": {"quality": 11, "value": 8037}, "FC5": {"quality": 11, "value": 7256}, "F3": {"quality": 9, "value": 7157}, "F4": {"quality": 9, "value": 7103}, "T8": {"quality": 9, "value": 7736}, "F7": {"quality": 12, "value": 8158}, "F8": {"quality": 11, "value": 8030}, "Unknown": {"quality": 11, "value": 82}, "AF4": {"quality": 10, "value": 8174}, "AF3": {"quality": 10, "value": 8592}}'
p391
sbag2
(g3
g4
NtRp392
(dp393
g7
I2
sg8
I41
sg9
I00
sg10
S')p\xad\xca\x98l\xa0Wy-\xf1\x97\xf0@\x00\x00\x02\x108\x16\x1eF~~\x02\x07\x9f\xdb\xefgk\xb0'
p394
sg12
I-3
sg13
I2
sg14
S'{"P7": {"quality": 10, "value": 7914}, "FC6": {"quality": 10, "value": 7744}, "T7": {"quality": 13, "value": 7694}, "P8": {"quality": 6, "value": 8255}, "Y": {"quality": 0, "value": 2}, "X": {"quality": 0, "value": -3}, "O2": {"quality": 7, "value": 8414}, "O1": {"quality": 11, "value": 8037}, "FC5": {"quality": 11, "value": 7256}, "F3": {"quality": 9, "value": 7157}, "F4": {"quality": 9, "value": 7103}, "T8": {"quality": 9, "value": 7736}, "F7": {"quality": 12, "value": 8158}, "F8": {"quality": 11, "value": 8030}, "Unknown": {"quality": 11, "value": 82}, "AF4": {"quality": 10, "value": 8174}, "AF3": {"quality": 10, "value": 8592}}'
p395
sbag2
(g3
g4
NtRp396
(dp397
g7
I2
sg8
I42
sg9
I00
sg10
S"*p\xad\xc9\xd8k\xe0]y)\xf1\x17\xef\xc0\x00\x00\x02\x108\x16^H~F\x02'\x9f\x1b\xf2gk\xc1"
p398
sg12
I-3
sg13
I2
sg14
S'{"P7": {"quality": 10, "value": 7914}, "FC6": {"quality": 10, "value": 7744}, "T7": {"quality": 13, "value": 7694}, "P8": {"quality": 6, "value": 8255}, "Y": {"quality": 0, "value": 2}, "X": {"quality": 0, "value": -3}, "O2": {"quality": 7, "value": 8414}, "O1": {"quality": 11, "value": 8037}, "FC5": {"quality": 11, "value": 7256}, "F3": {"quality": 9, "value": 7157}, "F4": {"quality": 9, "value": 7103}, "T8": {"quality": 9, "value": 7736}, "F7": {"quality": 12, "value": 8158}, "F8": {"quality": 11, "value": 8030}, "Unknown": {"quality": 11, "value": 82}, "AF4": {"quality": 10, "value": 8174}, "AF3": {"quality": 10, "value": 8592}}'
p399
sbag2
(g3
g4
NtRp400
(dp401
g7
I2
sg8
I43
sg9
I00
sg10
S'+p\xbd\xc9Xn Yy%\xf1\xd7\xf0\x00\x00\x00\x02\x10\xb8\x18\x1eE~B\x01\xe7\x9e[\xf4gk\xb0'
p402
sg12
I-3
sg13
I2
sg14
S'{"P7": {"quality": 10, "value": 7914}, "FC6": {"quality": 10, "value": 7744}, "T7": {"quality": 13, "value": 7694}, "P8": {"quality": 6, "value": 8255}, "Y": {"quality": 0, "value": 2}, "X": {"quality": 0, "value": -3}, "O2": {"quality": 7, "value": 8414}, "O1": {"quality": 11, "value": 8037}, "FC5": {"quality": 11, "value": 7256}, "F3": {"quality": 9, "value": 7157}, "F4": {"quality": 9, "value": 7103}, "T8": {"quality": 9, "value": 7736}, "F7": {"quality": 12, "value": 8158}, "F8": {"quality": 11, "value": 8030}, "Unknown": {"quality": 11, "value": 82}, "AF4": {"quality": 10, "value": 8174}, "AF3": {"quality": 10, "value": 8592}}'
p403
sbag2
(g3
g4
NtRp404
(dp405
g7
I2
sg8
I44
sg9
I00
sg10
S',p\xad\xc8\xa8l\xe0Oy\x01\xf2G\xf0\x00\x00\x00\x02\x10\xc8\x18\x1eQ~\x82\x01\xb7\xa0\x9b\xf5gk\xc2'
p406
sg12
I-3
sg13
I2
sg14
S'{"P7": {"quality": 10, "value": 7914}, "FC6": {"quality": 10, "value": 7744}, "T7": {"quality": 13, "value": 7694}, "P8": {"quality": 6, "value": 8255}, "Y": {"quality": 0, "value": 2}, "X": {"quality": 0, "value": -3}, "O2": {"quality": 7, "value": 8414}, "O1": {"quality": 11, "value": 8037}, "FC5": {"quality": 11, "value": 7256}, "F3": {"quality": 9, "value": 7157}, "F4": {"quality": 9, "value": 7103}, "T8": {"quality": 9, "value": 7736}, "F7": {"quality": 12, "value": 8158}, "F8": {"quality": 11, "value": 8030}, "Unknown": {"quality": 11, "value": 82}, "AF4": {"quality": 10, "value": 8174}, "AF3": {"quality": 10, "value": 8592}}'
p407
sbag2
(g3
g4
NtRp408
(dp409
g7
I2
sg8
I45
sg9
I00
sg10
S'-p\x89\xc7(g\xe0<x\xb5\xf0\xf7\xf0\x00\x00\x00\x02\x10\xa8\x18\x9e\\~\xaa\x01\xb7\xa1\xdb\xf1gk\xd1'
p410
sg12
I-3
sg13
I2
sg14
S'{"P7": {"quality": 10, "value": 7914}, "FC6": {"quality": 10, "value": 7744}, "T7": {"quality": 13, "value": 7694}, "P8": {"quality": 6, "value": 8255}, "Y": {"quality": 0, "value": 2}, "X": {"quality": 0, "value": -3}, "O2": {"quality": 7, "value": 8414}, "O1": {"quality": 11, "value": 8037}, "FC5": {"quality": 11, "value": 7256}, "F3": {"quality": 9, "value": 7157}, "F4": {"quality": 9, "value": 7103}, "T8": {"quality": 9, "value": 7736}, "F7": {"quality": 12, "value": 8158}, "F8": {"quality": 11, "value": 8030}, "Unknown": {"quality": 11, "value": 82}, "AF4": {"quality": 10, "value": 8174}, "AF3": {"quality": 10, "value": 8592}}'
p411
sbag2
(g3
g4
NtRp412
(dp413
g7
I2
sg8
I46
sg9
I00
sg10
S'.p\xa5\xc6Xf\xe0*xi\xef\xc7\xf0\x80\x00\x00\x02\x10\xe8\x18\xdeT~\xba\x02\x07\xa1\x1b\xf5gk\xc3'
p414
sg12
I-3
sg13
I2
sg14
S'{"P7": {"quality": 10, "value": 7914}, "FC6": {"quality": 10, "value": 7744}, "T7": {"quality": 13, "value": 7694}, "P8": {"quality": 6, "value": 8255}, "Y": {"quality": 0, "value": 2}, "X": {"quality": 0, "value": -3}, "O2": {"quality": 7, "value": 8414}, "O1": {"quality": 11, "value": 8037}, "FC5": {"quality": 11, "value": 7256}, "F3": {"quality": 9, "value": 7157}, "F4": {"quality": 9, "value": 7103}, "T8": {"quality": 9, "value": 7736}, "F7": {"quality": 12, "value": 8158}, "F8": {"quality": 11, "value": 8030}, "Unknown": {"quality": 11, "value": 82}, "AF4": {"quality": 10, "value": 8174}, "AF3": {"quality": 10, "value": 8592}}'
p415
sbag2
(g3
g4
NtRp416
(dp417
g7
I2
sg8
I47
sg9
I00
sg10
S'/p\xbd\xc6\x98g`\x1dx9\xef\xc7\xed\xc0\x00\x00\x02\x0f\xd8\x13\x1e>~z\x01\xa7\xa0\x1b\xf5gk\xd3'
p418
sg12
I-3
sg13
I2
sg14
S'{"P7": {"quality": 10, "value": 7914}, "FC6": {"quality": 10, "value": 7744}, "T7": {"quality": 13, "value": 7694}, "P8": {"quality": 6, "value": 8255}, "Y": {"quality": 0, "value": 2}, "X": {"quality": 0, "value": -3}, "O2": {"quality": 7, "value": 8414}, "O1": {"quality": 11, "value": 8037}, "FC5": {"quality": 11, "value": 7256}, "F3": {"quality": 9, "value": 7157}, "F4": {"quality": 9, "value": 7103}, "T8": {"quality": 9, "value": 7736}, "F7": {"quality": 12, "value": 8158}, "F8": {"quality": 11, "value": 8030}, "Unknown": {"quality": 11, "value": 82}, "AF4": {"quality": 10, "value": 8174}, "AF3": {"quality": 10, "value": 8592}}'
p419
sbag2
(g3
g4
NtRp420
(dp421
g7
I2
sg8
I48
sg9
I00
sg10
S'0p\x95\xc6\xa8e\xe0\x19x1\xef\xb7\xe9@\x00\x00\x02\x0e\xd8\x0f\x9e7~2\x00\xf7\x9f[\xecgk\xe3'
p422
sg12
I-3
sg13
I2
sg14
S'{"P7": {"quality": 10, "value": 7914}, "FC6": {"quality": 10, "value": 7744}, "T7": {"quality": 13, "value": 7694}, "P8": {"quality": 6, "value": 8255}, "Y": {"quality": 0, "value": 2}, "X": {"quality": 0, "value": -3}, "O2": {"quality": 7, "value": 8414}, "O1": {"quality": 11, "value": 8037}, "FC5": {"quality": 11, "value": 7256}, "F3": {"quality": 9, "value": 7157}, "F4": {"quality": 9, "value": 7103}, "T8": {"quality": 9, "value": 7736}, "F7": {"quality": 12, "value": 8158}, "F8": {"quality": 11, "value": 8030}, "Unknown": {"quality": 11, "value": 82}, "AF4": {"quality": 10, "value": 8174}, "AF3": {"quality": 10, "value": 8592}}'
p423
sbag2
(g3
g4
NtRp424
(dp425
g7
I2
sg8
I49
sg9
I00
sg10
S'1p\x81\xc6xg\xa0\x1exA\xefg\xe9\xc0\x00\x00\x02\x108\x15\xde?~r\x01w\xa0[\xecgk\xe3'
p426
sg12
I-3
sg13
I2
sg14
S'{"P7": {"quality": 10, "value": 7914}, "FC6": {"quality": 10, "value": 7744}, "T7": {"quality": 13, "value": 7694}, "P8": {"quality": 6, "value": 8255}, "Y": {"quality": 0, "value": 2}, "X": {"quality": 0, "value": -3}, "O2": {"quality": 7, "value": 8414}, "O1": {"quality": 11, "value": 8037}, "FC5": {"quality": 11, "value": 7256}, "F3": {"quality": 9, "value": 7157}, "F4": {"quality": 9, "value": 7103}, "T8": {"quality": 9, "value": 7736}, "F7": {"quality": 12, "value": 8158}, "F8": {"quality": 11, "value": 8030}, "Unknown": {"quality": 11, "value": 82}, "AF4": {"quality": 10, "value": 8174}, "AF3": {"quality": 10, "value": 8592}}'
p427
sbag2
(g3
g4
NtRp428
(dp429
g7
I2
sg8
I50
sg9
I00
sg10
S'2pu\xc6\x88g\xa0\x15x5\xefw\xeb\xc0\x00\x00\x02\x11x\x1a\x1eC~\xb2\x02\x07\xa0\xdb\xe4gk\xe4'
p430
sg12
I-3
sg13
I2
sg14
S'{"P7": {"quality": 10, "value": 7914}, "FC6": {"quality": 10, "value": 7744}, "T7": {"quality": 13, "value": 7694}, "P8": {"quality": 6, "value": 8255}, "Y": {"quality": 0, "value": 2}, "X": {"quality": 0, "value": -3}, "O2": {"quality": 7, "value": 8414}, "O1": {"quality": 11, "value": 8037}, "FC5": {"quality": 11, "value": 7256}, "F3": {"quality": 9, "value": 7157}, "F4": {"quality": 9, "value": 7103}, "T8": {"quality": 9, "value": 7736}, "F7": {"quality": 12, "value": 8158}, "F8": {"quality": 11, "value": 8030}, "Unknown": {"quality": 11, "value": 82}, "AF4": {"quality": 10, "value": 8174}, "AF3": {"quality": 10, "value": 8592}}'
p431
sbag2
(g3
g4
NtRp432
(dp433
g7
I2
sg8
I51
sg9
I00
sg10
S'3pa\xc6\x98c\xa0\x00x\x15\xefg\xe9\x00\x00\x00\x02\x108\x15\x9e;~j\x01\x17\x9e\xdb\xd1hk\x03'
p434
sg12
I-2
sg13
I2
sg14
S'{"P7": {"quality": 10, "value": 7914}, "FC6": {"quality": 10, "value": 7744}, "T7": {"quality": 13, "value": 7694}, "P8": {"quality": 6, "value": 8255}, "Y": {"quality": 0, "value": 2}, "X": {"quality": 0, "value": -3}, "O2": {"quality": 7, "value": 8414}, "O1": {"quality": 11, "value": 8037}, "FC5": {"quality": 11, "value": 7256}, "F3": {"quality": 9, "value": 7157}, "F4": {"quality": 9, "value": 7103}, "T8": {"quality": 9, "value": 7736}, "F7": {"quality": 12, "value": 8158}, "F8": {"quality": 11, "value": 8030}, "Unknown": {"quality": 11, "value": 82}, "AF4": {"quality": 10, "value": 8174}, "AF3": {"quality": 10, "value": 8592}}'
p435
sbag2
(g3
g4
NtRp436
(dp437
g7
I2
sg8
I52
sg9
I00
sg10
S'4py\xc6\xb8f\x1f\xfbx!\xef7\xe7\x00\x00\x00\x02\x0f\x18\x10\x1e0~*\x007\x9c\x9b\xd0gk\xf2'
p438
sg12
I-3
sg13
I2
sg14
S'{"P7": {"quality": 10, "value": 7914}, "FC6": {"quality": 10, "value": 7744}, "T7": {"quality": 13, "value": 7694}, "P8": {"quality": 6, "value": 8255}, "Y": {"quality": 0, "value": 2}, "X": {"quality": 0, "value": -3}, "O2": {"quality": 7, "value": 8414}, "O1": {"quality": 11, "value": 8037}, "FC5": {"quality": 11, "value": 7256}, "F3": {"quality": 9, "value": 7157}, "F4": {"quality": 9, "value": 7103}, "T8": {"quality": 9, "value": 7736}, "F7": {"quality": 12, "value": 8158}, "F8": {"quality": 11, "value": 8030}, "Unknown": {"quality": 11, "value": 82}, "AF4": {"quality": 10, "value": 8174}, "AF3": {"quality": 10, "value": 8592}}'
p439
sbag2
(g3
g4
NtRp440
(dp441
g7
I2
sg8
I53
sg9
I00
sg10
S'5pm\xc6\xd8i\xdf\xfex-\xee\xf7\xe8\x00\x00\x00\x02\x0fH\x10\x1e.~"\x01\x07\x9a\x9b\xd7gk\xf2'
p442
sg12
I-3
sg13
I2
sg14
S'{"P7": {"quality": 10, "value": 7914}, "FC6": {"quality": 10, "value": 7744}, "T7": {"quality": 13, "value": 7694}, "P8": {"quality": 6, "value": 8255}, "Y": {"quality": 0, "value": 2}, "X": {"quality": 0, "value": -3}, "O2": {"quality": 7, "value": 8414}, "O1": {"quality": 11, "value": 8037}, "FC5": {"quality": 11, "value": 7256}, "F3": {"quality": 9, "value": 7157}, "F4": {"quality": 9, "value": 7103}, "T8": {"quality": 9, "value": 7736}, "F7": {"quality": 12, "value": 8158}, "F8": {"quality": 11, "value": 8030}, "Unknown": {"quality": 11, "value": 82}, "AF4": {"quality": 10, "value": 8174}, "AF3": {"quality": 10, "value": 8592}}'
p443
sbag2
(g3
g4
NtRp444
(dp445
g7
I2
sg8
I54
sg9
I00
sg10
S"6p-\xc5\xd8e\xdf\xeax\x01\xee'\xe8\x00\x00\x00\x02\x0e\xe8\x11\x1e%~\x06\x01\xe7\x98\x1b\xd2gk\xf0"
p446
sg12
I-3
sg13
I2
sg14
S'{"P7": {"quality": 10, "value": 7914}, "FC6": {"quality": 10, "value": 7744}, "T7": {"quality": 13, "value": 7694}, "P8": {"quality": 6, "value": 8255}, "Y": {"quality": 0, "value": 2}, "X": {"quality": 0, "value": -3}, "O2": {"quality": 7, "value": 8414}, "O1": {"quality": 11, "value": 8037}, "FC5": {"quality": 11, "value": 7256}, "F3": {"quality": 9, "value": 7157}, "F4": {"quality": 9, "value": 7103}, "T8": {"quality": 9, "value": 7736}, "F7": {"quality": 12, "value": 8158}, "F8": {"quality": 11, "value": 8030}, "Unknown": {"quality": 11, "value": 82}, "AF4": {"quality": 10, "value": 8174}, "AF3": {"quality": 10, "value": 8592}}'
p447
sbag2
(g3
g4
NtRp448
(dp449
g7
I2
sg8
I55
sg9
I00
sg10
S'7p)\xc4\xb8c\x9f\xdaw\xed\xed\xb7\xe8\xc0\x00\x00\x02\x0eH\x0f\xde!~\x06\x02\x17\x99\xdb\xd1gk\xe0'
p450
sg12
I-3
sg13
I2
sg14
S'{"P7": {"quality": 10, "value": 7914}, "FC6": {"quality": 10, "value": 7744}, "T7": {"quality": 13, "value": 7694}, "P8": {"quality": 6, "value": 8255}, "Y": {"quality": 0, "value": 2}, "X": {"quality": 0, "value": -3}, "O2": {"quality": 7, "value": 8414}, "O1": {"quality": 11, "value": 8037}, "FC5": {"quality": 11, "value": 7256}, "F3": {"quality": 9, "value": 7157}, "F4": {"quality": 9, "value": 7103}, "T8": {"quality": 9, "value": 7736}, "F7": {"quality": 12, "value": 8158}, "F8": {"quality": 11, "value": 8030}, "Unknown": {"quality": 11, "value": 82}, "AF4": {"quality": 10, "value": 8174}, "AF3": {"quality": 10, "value": 8592}}'
p451
sbag2
(g3
g4
NtRp452
(dp453
g7
I2
sg8
I56
sg9
I00
sg10
S'8pA\xc4Xg\x9f\xe8x\t\xee\x17\xe8@\x00\x00\x02\x0e\xd8\x10\xde3~"\x01\xa7\x9d\x9b\xd9hj\x0e'
p454
sg12
I-2
sg13
I1
sg14
S'{"P7": {"quality": 10, "value": 7914}, "FC6": {"quality": 10, "value": 7744}, "T7": {"quality": 13, "value": 7694}, "P8": {"quality": 6, "value": 8255}, "Y": {"quality": 0, "value": 2}, "X": {"quality": 0, "value": -3}, "O2": {"quality": 7, "value": 8414}, "O1": {"quality": 11, "value": 8037}, "FC5": {"quality": 11, "value": 7256}, "F3": {"quality": 9, "value": 7157}, "F4": {"quality": 9, "value": 7103}, "T8": {"quality": 9, "value": 7736}, "F7": {"quality": 12, "value": 8158}, "F8": {"quality": 11, "value": 8030}, "Unknown": {"quality": 11, "value": 82}, "AF4": {"quality": 10, "value": 8174}, "AF3": {"quality": 10, "value": 8592}}'
p455
sbag2
(g3
g4
NtRp456
(dp457
g7
I2
sg8
I57
sg9
I00
sg10
S'9pI\xc3hi\xdf\xf0x)\xee7\xe5\x00\x00\x00\x02\x0fh\x16\x1e?~"\x00\xa7\x9b\x9b\xd7gj\xef'
p458
sg12
I-3
sg13
I1
sg14
S'{"P7": {"quality": 10, "value": 7914}, "FC6": {"quality": 10, "value": 7744}, "T7": {"quality": 13, "value": 7694}, "P8": {"quality": 6, "value": 8255}, "Y": {"quality": 0, "value": 2}, "X": {"quality": 0, "value": -3}, "O2": {"quality": 7, "value": 8414}, "O1": {"quality": 11, "value": 8037}, "FC5": {"quality": 11, "value": 7256}, "F3": {"quality": 9, "value": 7157}, "F4": {"quality": 9, "value": 7103}, "T8": {"quality": 9, "value": 7736}, "F7": {"quality": 12, "value": 8158}, "F8": {"quality": 11, "value": 8030}, "Unknown": {"quality": 11, "value": 82}, "AF4": {"quality": 10, "value": 8174}, "AF3": {"quality": 10, "value": 8592}}'
p459
sbag2
(g3
g4
NtRp460
(dp461
g7
I2
sg8
I58
sg9
I00
sg10
S":pI\xc2hh_\xe9x\x1d\xee'\xe6@\x00\x00\x02\x0f\x88\x18^3~\x1e\x007\x99\xdb\xd3gj\xef"
p462
sg12
I-3
sg13
I1
sg14
S'{"P7": {"quality": 10, "value": 7914}, "FC6": {"quality": 10, "value": 7744}, "T7": {"quality": 13, "value": 7694}, "P8": {"quality": 6, "value": 8255}, "Y": {"quality": 0, "value": 2}, "X": {"quality": 0, "value": -3}, "O2": {"quality": 7, "value": 8414}, "O1": {"quality": 11, "value": 8037}, "FC5": {"quality": 11, "value": 7256}, "F3": {"quality": 9, "value": 7157}, "F4": {"quality": 9, "value": 7103}, "T8": {"quality": 9, "value": 7736}, "F7": {"quality": 12, "value": 8158}, "F8": {"quality": 11, "value": 8030}, "Unknown": {"quality": 11, "value": 82}, "AF4": {"quality": 10, "value": 8174}, "AF3": {"quality": 10, "value": 8592}}'
p463
sbag2
(g3
g4
NtRp464
(dp465
g7
I2
sg8
I59
sg9
I00
sg10
S';p\x05\xc2\xa8d\x9f\xe8w\xf5\xeeG\xe8\x80\x00\x00\x02\x0fX\x13^(~\x02\x00G\x99\x9b\xcdgj\xef'
p466
sg12
I-3
sg13
I1
sg14
S'{"P7": {"quality": 10, "value": 7914}, "FC6": {"quality": 10, "value": 7744}, "T7": {"quality": 13, "value": 7694}, "P8": {"quality": 6, "value": 8255}, "Y": {"quality": 0, "value": 2}, "X": {"quality": 0, "value": -3}, "O2": {"quality": 7, "value": 8414}, "O1": {"quality": 11, "value": 8037}, "FC5": {"quality": 11, "value": 7256}, "F3": {"quality": 9, "value": 7157}, "F4": {"quality": 9, "value": 7103}, "T8": {"quality": 9, "value": 7736}, "F7": {"quality": 12, "value": 8158}, "F8": {"quality": 11, "value": 8030}, "Unknown": {"quality": 11, "value": 82}, "AF4": {"quality": 10, "value": 8174}, "AF3": {"quality": 10, "value": 8592}}'
p467
sbag2
(g3
g4
NtRp468
(dp469
g7
I2
sg8
I60
sg9
I00
sg10
S'<o\xb9\xc2\xf8^\xdf\xe0w\xad\xed7\xe4\x00\x00\x00\x02\x0eh\x0f\x1e%}\xbd\xffW\x96[\xbcgk\xe0'
p470
sg12
I-3
sg13
I2
sg14
S'{"P7": {"quality": 10, "value": 7914}, "FC6": {"quality": 10, "value": 7744}, "T7": {"quality": 13, "value": 7694}, "P8": {"quality": 6, "value": 8255}, "Y": {"quality": 0, "value": 2}, "X": {"quality": 0, "value": -3}, "O2": {"quality": 7, "value": 8414}, "O1": {"quality": 11, "value": 8037}, "FC5": {"quality": 11, "value": 7256}, "F3": {"quality": 9, "value": 7157}, "F4": {"quality": 9, "value": 7103}, "T8": {"quality": 9, "value": 7736}, "F7": {"quality": 12, "value": 8158}, "F8": {"quality": 11, "value": 8030}, "Unknown": {"quality": 11, "value": 82}, "AF4": {"quality": 10, "value": 8174}, "AF3": {"quality": 10, "value": 8592}}'
p471
sbag2
(g3
g4
NtRp472
(dp473
g7
I2
sg8
I61
sg9
I00
sg10
S'=o\xa9\xc2\xc8^_\xccw\x85\xec7\xdf\x00\x00\x00\x02\rX\x0e\x1e!}\x99\xfe\x07\x94[\xadgj\xdf'
p474
sg12
I-3
sg13
I1
sg14
S'{"P7": {"quality": 10, "value": 7914}, "FC6": {"quality": 10, "value": 7744}, "T7": {"quality": 13, "value": 7694}, "P8": {"quality": 6, "value": 8255}, "Y": {"quality": 0, "value": 2}, "X": {"quality": 0, "value": -3}, "O2": {"quality": 7, "value": 8414}, "O1": {"quality": 11, "value": 8037}, "FC5": {"quality": 11, "value": 7256}, "F3": {"quality": 9, "value": 7157}, "F4": {"quality": 9, "value": 7103}, "T8": {"quality": 9, "value": 7736}, "F7": {"quality": 12, "value": 8158}, "F8": {"quality": 11, "value": 8030}, "Unknown": {"quality": 11, "value": 82}, "AF4": {"quality": 10, "value": 8174}, "AF3": {"quality": 10, "value": 8592}}'
p475
sbag2
(g3
g4
NtRp476
(dp477
g7
I2
sg8
I62
sg9
I00
sg10
S">o\xb9\xc2\xc8d\x9f\xc1w\x99\xec\x87\xdf\x80\x00\x00\x02\rX\x0b^\x1d}\xa5\xfe'\x95\x1b\xafgj\xef"
p478
sg12
I-3
sg13
I1
sg14
S'{"P7": {"quality": 10, "value": 7914}, "FC6": {"quality": 10, "value": 7744}, "T7": {"quality": 13, "value": 7694}, "P8": {"quality": 6, "value": 8255}, "Y": {"quality": 0, "value": 2}, "X": {"quality": 0, "value": -3}, "O2": {"quality": 7, "value": 8414}, "O1": {"quality": 11, "value": 8037}, "FC5": {"quality": 11, "value": 7256}, "F3": {"quality": 9, "value": 7157}, "F4": {"quality": 9, "value": 7103}, "T8": {"quality": 9, "value": 7736}, "F7": {"quality": 12, "value": 8158}, "F8": {"quality": 11, "value": 8030}, "Unknown": {"quality": 11, "value": 82}, "AF4": {"quality": 10, "value": 8174}, "AF3": {"quality": 10, "value": 8592}}'
p479
sbag2
(g3
g4
NtRp480
(dp481
g7
I2
sg8
I63
sg9
I00
sg10
S'?o\xb5\xc2\xd8g\x9f\xc2w\xa9\xecw\xde\x80\x00\x00\x02\rH\x08^\x1f}\x95\xfeg\x92\xdb\xb6gj\xee'
p482
sg12
I-3
sg13
I1
sg14
S'{"P7": {"quality": 10, "value": 7914}, "FC6": {"quality": 10, "value": 7744}, "T7": {"quality": 13, "value": 7694}, "P8": {"quality": 6, "value": 8255}, "Y": {"quality": 0, "value": 2}, "X": {"quality": 0, "value": -3}, "O2": {"quality": 7, "value": 8414}, "O1": {"quality": 11, "value": 8037}, "FC5": {"quality": 11, "value": 7256}, "F3": {"quality": 9, "value": 7157}, "F4": {"quality": 9, "value": 7103}, "T8": {"quality": 9, "value": 7736}, "F7": {"quality": 12, "value": 8158}, "F8": {"quality": 11, "value": 8030}, "Unknown": {"quality": 11, "value": 82}, "AF4": {"quality": 10, "value": 8174}, "AF3": {"quality": 10, "value": 8592}}'
p483
sbag2
(g3
g4
NtRp484
(dp485
g7
I2
sg8
I64
sg9
I00
sg10
S'@o\xa9\xc38e_\xbew\x95\xec\x07\xd9\xc1\x9f\x00\x02\x0c\xc8\x08\x1e!}\x85\xfd\xe7\x90[\xa9gj\xeb'
p486
sg12
I-3
sg13
I1
sg14
S'{"P7": {"quality": 10, "value": 7914}, "FC6": {"quality": 10, "value": 7744}, "T7": {"quality": 13, "value": 7694}, "P8": {"quality": 6, "value": 8255}, "Y": {"quality": 0, "value": 2}, "X": {"quality": 0, "value": -3}, "O2": {"quality": 7, "value": 8414}, "O1": {"quality": 11, "value": 8037}, "FC5": {"quality": 11, "value": 7256}, "F3": {"quality": 9, "value": 7157}, "F4": {"quality": 9, "value": 7103}, "T8": {"quality": 9, "value": 7736}, "F7": {"quality": 12, "value": 8158}, "F8": {"quality": 11, "value": 8030}, "Unknown": {"quality": 11, "value": 82}, "AF4": {"quality": 10, "value": 8174}, "AF3": {"quality": 10, "value": 8592}}'
p487
sbag2
(g3
g4
NtRp488
(dp489
g7
I2
sg8
I65
sg9
I00
sg10
S'Ao\xad\xc4\x08e_\xaew\xad\xec\x07\xdaA\xc3\x00\x02\x0c\xe8\x08\xde\x19}\x91\xfd\xf7\x90\xdb\x96gj\xf7'
p490
sg12
I-3
sg13
I1
sg14
S'{"P7": {"quality": 10, "value": 7914}, "FC6": {"quality": 10, "value": 7744}, "T7": {"quality": 13, "value": 7694}, "P8": {"quality": 6, "value": 8255}, "Y": {"quality": 0, "value": 2}, "X": {"quality": 0, "value": -3}, "O2": {"quality": 7, "value": 8414}, "O1": {"quality": 11, "value": 8037}, "FC5": {"quality": 11, "value": 7256}, "F3": {"quality": 9, "value": 7157}, "F4": {"quality": 9, "value": 7103}, "T8": {"quality": 9, "value": 7736}, "F7": {"quality": 12, "value": 8158}, "F8": {"quality": 11, "value": 8030}, "Unknown": {"quality": 11, "value": 82}, "AF4": {"quality": 10, "value": 8174}, "AF3": {"quality": 10, "value": 8592}}'
p491
sbag2
(g3
g4
NtRp492
(dp493
g7
I2
sg8
I66
sg9
I00
sg10
S'Bo\xc5\xc4Xf\xdf\xa2x\x01\xec7\xdfA\xb6\x00\x02\r\xa8\n\x1e\x11}\x8d\xfe7\x90\xdb\xa2gj\xe7'
p494
sg12
I-3
sg13
I1
sg14
S'{"P7": {"quality": 10, "value": 7914}, "FC6": {"quality": 10, "value": 7744}, "T7": {"quality": 13, "value": 7694}, "P8": {"quality": 6, "value": 8255}, "Y": {"quality": 0, "value": 2}, "X": {"quality": 0, "value": -3}, "O2": {"quality": 7, "value": 8414}, "O1": {"quality": 11, "value": 8037}, "FC5": {"quality": 11, "value": 7256}, "F3": {"quality": 9, "value": 7157}, "F4": {"quality": 9, "value": 7103}, "T8": {"quality": 9, "value": 7736}, "F7": {"quality": 12, "value": 8158}, "F8": {"quality": 11, "value": 8030}, "Unknown": {"quality": 11, "value": 82}, "AF4": {"quality": 10, "value": 8174}, "AF3": {"quality": 10, "value": 8592}}'
p495
sbag2
(g3
g4
NtRp496
(dp497
g7
I2
sg8
I67
sg9
I00
sg10
S'Co\xcd\xc3\xb8d\x1f\x9cx\r\xec\x97\xe1\x81\xcb\x00\x02\x0eH\r\xde\x19}\x91\xfe7\x90\x9b\xb2hj\x06'
p498
sg12
I-2
sg13
I1
sg14
S'{"P7": {"quality": 10, "value": 7914}, "FC6": {"quality": 10, "value": 7744}, "T7": {"quality": 13, "value": 7694}, "P8": {"quality": 6, "value": 8255}, "Y": {"quality": 0, "value": 2}, "X": {"quality": 0, "value": -3}, "O2": {"quality": 7, "value": 8414}, "O1": {"quality": 11, "value": 8037}, "FC5": {"quality": 11, "value": 7256}, "F3": {"quality": 9, "value": 7157}, "F4": {"quality": 9, "value": 7103}, "T8": {"quality": 9, "value": 7736}, "F7": {"quality": 12, "value": 8158}, "F8": {"quality": 11, "value": 8030}, "Unknown": {"quality": 11, "value": 82}, "AF4": {"quality": 10, "value": 8174}, "AF3": {"quality": 10, "value": 8592}}'
p499
sbag2
(g3
g4
NtRp500
(dp501
g7
I2
sg8
I68
sg9
I00
sg10
S'Do\xb5\xc2\xf8`_\x8cw\xc5\xedW\xe1A\xde\x00\x02\x0e\xc8\x10\x1e(}\x9d\xfd\xa7\x91\x1b\xa3gj\xf8'
p502
sg12
I-3
sg13
I1
sg14
S'{"P7": {"quality": 10, "value": 7914}, "FC6": {"quality": 10, "value": 7744}, "T7": {"quality": 13, "value": 7694}, "P8": {"quality": 6, "value": 8255}, "Y": {"quality": 0, "value": 2}, "X": {"quality": 0, "value": -3}, "O2": {"quality": 7, "value": 8414}, "O1": {"quality": 11, "value": 8037}, "FC5": {"quality": 11, "value": 7256}, "F3": {"quality": 9, "value": 7157}, "F4": {"quality": 9, "value": 7103}, "T8": {"quality": 9, "value": 7736}, "F7": {"quality": 12, "value": 8158}, "F8": {"quality": 11, "value": 8030}, "Unknown": {"quality": 11, "value": 82}, "AF4": {"quality": 10, "value": 8174}, "AF3": {"quality": 10, "value": 8592}}'
p503
sbag2
(g3
g4
NtRp504
(dp505
g7
I2
sg8
I69
sg9
I00
sg10
S'Eo\xa5\xc2\xc8_\x9f~w\xb5\xee\x17\xe2\xc1\xb5\x00\x02\x0f\x18\x0e\x9e%}i\xfc\xc7\x90\xdb\x95hj\n'
p506
sg12
I-2
sg13
I1
sg14
S'{"P7": {"quality": 10, "value": 7914}, "FC6": {"quality": 10, "value": 7744}, "T7": {"quality": 13, "value": 7694}, "P8": {"quality": 6, "value": 8255}, "Y": {"quality": 0, "value": 2}, "X": {"quality": 0, "value": -3}, "O2": {"quality": 7, "value": 8414}, "O1": {"quality": 11, "value": 8037}, "FC5": {"quality": 11, "value": 7256}, "F3": {"quality": 9, "value": 7157}, "F4": {"quality": 9, "value": 7103}, "T8": {"quality": 9, "value": 7736}, "F7": {"quality": 12, "value": 8158}, "F8": {"quality": 11, "value": 8030}, "Unknown": {"quality": 11, "value": 82}, "AF4": {"quality": 10, "value": 8174}, "AF3": {"quality": 10, "value": 8592}}'
p507
sbag2
(g3
g4
NtRp508
(dp509
g7
I2
sg8
I70
sg9
I00
sg10
S'Fo\xad\xc2\xd8__|w\xc9\xee\xa7\xe3\x01\xc3\x00\x02\x0f(\r\xde\x12}\t\xfcg\x90\x9b\xa1hj\n'
p510
sg12
I-2
sg13
I1
sg14
S'{"P7": {"quality": 10, "value": 7914}, "FC6": {"quality": 10, "value": 7744}, "T7": {"quality": 13, "value": 7694}, "P8": {"quality": 6, "value": 8255}, "Y": {"quality": 0, "value": 2}, "X": {"quality": 0, "value": -3}, "O2": {"quality": 7, "value": 8414}, "O1": {"quality": 11, "value": 8037}, "FC5": {"quality": 11, "value": 7256}, "F3": {"quality": 9, "value": 7157}, "F4": {"quality": 9, "value": 7103}, "T8": {"quality": 9, "value": 7736}, "F7": {"quality": 12, "value": 8158}, "F8": {"quality": 11, "value": 8030}, "Unknown": {"quality": 11, "value": 82}, "AF4": {"quality": 10, "value": 8174}, "AF3": {"quality": 10, "value": 8592}}'
p511
sbag2
(g3
g4
NtRp512
(dp513
g7
I2
sg8
I71
sg9
I00
sg10
S'Go\xbd\xc3\xb8`_\x7fw\xb5\xee\xb7\xe1Av\x00\x02\x0f\x98\x10\x1e\x11}!\xfc\x87\x8f\xdb\xb0hj\x0c'
p514
sg12
I-2
sg13
I1
sg14
S'{"P7": {"quality": 10, "value": 7914}, "FC6": {"quality": 10, "value": 7744}, "T7": {"quality": 13, "value": 7694}, "P8": {"quality": 6, "value": 8255}, "Y": {"quality": 0, "value": 2}, "X": {"quality": 0, "value": -3}, "O2": {"quality": 7, "value": 8414}, "O1": {"quality": 11, "value": 8037}, "FC5": {"quality": 11, "value": 7256}, "F3": {"quality": 9, "value": 7157}, "F4": {"quality": 9, "value": 7103}, "T8": {"quality": 9, "value": 7736}, "F7": {"quality": 12, "value": 8158}, "F8": {"quality": 11, "value": 8030}, "Unknown": {"quality": 11, "value": 82}, "AF4": {"quality": 10, "value": 8174}, "AF3": {"quality": 10, "value": 8592}}'
p515
sbag2
(g3
g4
NtRp516
(dp517
g7
I2
sg8
I72
sg9
I00
sg10
S'Ho\xcd\xc4\xb8b\x9f\x8ew\xb9\xeeg\xde\xc1u\x00\x02\x0fh\x11^$}\x81\xfc\xc7\x91\x9b\xb7hj\r'
p518
sg12
I-2
sg13
I1
sg14
S'{"P7": {"quality": 10, "value": 7914}, "FC6": {"quality": 10, "value": 7744}, "T7": {"quality": 13, "value": 7694}, "P8": {"quality": 6, "value": 8255}, "Y": {"quality": 0, "value": 2}, "X": {"quality": 0, "value": -3}, "O2": {"quality": 7, "value": 8414}, "O1": {"quality": 11, "value": 8037}, "FC5": {"quality": 11, "value": 7256}, "F3": {"quality": 9, "value": 7157}, "F4": {"quality": 9, "value": 7103}, "T8": {"quality": 9, "value": 7736}, "F7": {"quality": 12, "value": 8158}, "F8": {"quality": 11, "value": 8030}, "Unknown": {"quality": 11, "value": 82}, "AF4": {"quality": 10, "value": 8174}, "AF3": {"quality": 10, "value": 8592}}'
p519
sbag2
(g3
g4
NtRp520
(dp521
g7
I2
sg8
I73
sg9
I00
sg10
S'Io\xd1\xc4Hb\x1f\xa6w\xcd\xec\xf7\xd8\x81\x9c\x00\x02\r\xb8\x0b\x9e\x1b}Y\xfcW\x92\x1b\xb4hj\x0e'
p522
sg12
I-2
sg13
I1
sg14
S'{"P7": {"quality": 10, "value": 7914}, "FC6": {"quality": 10, "value": 7744}, "T7": {"quality": 13, "value": 7694}, "P8": {"quality": 6, "value": 8255}, "Y": {"quality": 0, "value": 2}, "X": {"quality": 0, "value": -3}, "O2": {"quality": 7, "value": 8414}, "O1": {"quality": 11, "value": 8037}, "FC5": {"quality": 11, "value": 7256}, "F3": {"quality": 9, "value": 7157}, "F4": {"quality": 9, "value": 7103}, "T8": {"quality": 9, "value": 7736}, "F7": {"quality": 12, "value": 8158}, "F8": {"quality": 11, "value": 8030}, "Unknown": {"quality": 11, "value": 82}, "AF4": {"quality": 10, "value": 8174}, "AF3": {"quality": 10, "value": 8592}}'
p523
sbag2
(g3
g4
NtRp524
(dp525
g7
I2
sg8
I74
sg9
I00
sg10
S'Jo\xbd\xc3\x18`_\xaaw\xbd\xeb\xc7\xd5\x81\xba\x00\x02\r\x18\x04\xdd\xfd}\r\xfc\x07\x8e\x9b\xaehj\x0e'
p526
sg12
I-2
sg13
I1
sg14
S'{"P7": {"quality": 10, "value": 7914}, "FC6": {"quality": 10, "value": 7744}, "T7": {"quality": 13, "value": 7694}, "P8": {"quality": 6, "value": 8255}, "Y": {"quality": 0, "value": 2}, "X": {"quality": 0, "value": -3}, "O2": {"quality": 7, "value": 8414}, "O1": {"quality": 11, "value": 8037}, "FC5": {"quality": 11, "value": 7256}, "F3": {"quality": 9, "value": 7157}, "F4": {"quality": 9, "value": 7103}, "T8": {"quality": 9, "value": 7736}, "F7": {"quality": 12, "value": 8158}, "F8": {"quality": 11, "value": 8030}, "Unknown": {"quality": 11, "value": 82}, "AF4": {"quality": 10, "value": 8174}, "AF3": {"quality": 10, "value": 8592}}'
p527
sbag2
(g3
g4
NtRp528
(dp529
g7
I2
sg8
I75
sg9
I00
sg10
S'Ko\xb5\xc3\x18_\x9f\xa3w\x9d\xec\x87\xd8\xc1\xb5\x00\x02\x0eH\x07\x9e\x04}!\xfd7\x8d\x9b\xb1hk\x01'
p530
sg12
I-2
sg13
I2
sg14
S'{"P7": {"quality": 10, "value": 7914}, "FC6": {"quality": 10, "value": 7744}, "T7": {"quality": 13, "value": 7694}, "P8": {"quality": 6, "value": 8255}, "Y": {"quality": 0, "value": 2}, "X": {"quality": 0, "value": -3}, "O2": {"quality": 7, "value": 8414}, "O1": {"quality": 11, "value": 8037}, "FC5": {"quality": 11, "value": 7256}, "F3": {"quality": 9, "value": 7157}, "F4": {"quality": 9, "value": 7103}, "T8": {"quality": 9, "value": 7736}, "F7": {"quality": 12, "value": 8158}, "F8": {"quality": 11, "value": 8030}, "Unknown": {"quality": 11, "value": 82}, "AF4": {"quality": 10, "value": 8174}, "AF3": {"quality": 10, "value": 8592}}'
p531
sbag2
(g3
g4
NtRp532
(dp533
g7
I2
sg8
I76
sg9
I00
sg10
S'Lo\xb9\xc2\xd8^\x1f\xb0w\x8d\xed\x87\xda\x81\xab\x00\x02\x0eH\x0c\xde\x11}I\xfeW\x90[\xafgk\xe3'
p534
sg12
I-3
sg13
I2
sg14
S'{"P7": {"quality": 10, "value": 7914}, "FC6": {"quality": 10, "value": 7744}, "T7": {"quality": 13, "value": 7694}, "P8": {"quality": 6, "value": 8255}, "Y": {"quality": 0, "value": 2}, "X": {"quality": 0, "value": -3}, "O2": {"quality": 7, "value": 8414}, "O1": {"quality": 11, "value": 8037}, "FC5": {"quality": 11, "value": 7256}, "F3": {"quality": 9, "value": 7157}, "F4": {"quality": 9, "value": 7103}, "T8": {"quality": 9, "value": 7736}, "F7": {"quality": 12, "value": 8158}, "F8": {"quality": 11, "value": 8030}, "Unknown": {"quality": 11, "value": 82}, "AF4": {"quality": 10, "value": 8174}, "AF3": {"quality": 10, "value": 8592}}'
p535
sbag2
(g3
g4
NtRp536
(dp537
g7
I2
sg8
I77
sg9
I00
sg10
S'Mo\xc1\xc2(^\x1f\xbew\xc9\xed\xd7\xd8\xc1\x9e\x00\x02\r\x18\t\x9e\x06}U\xfe7\x90\x1b\xaagk\xe3'
p538
sg12
I-3
sg13
I2
sg14
S'{"P7": {"quality": 10, "value": 7914}, "FC6": {"quality": 10, "value": 7744}, "T7": {"quality": 13, "value": 7694}, "P8": {"quality": 6, "value": 8255}, "Y": {"quality": 0, "value": 2}, "X": {"quality": 0, "value": -3}, "O2": {"quality": 7, "value": 8414}, "O1": {"quality": 11, "value": 8037}, "FC5": {"quality": 11, "value": 7256}, "F3": {"quality": 9, "value": 7157}, "F4": {"quality": 9, "value": 7103}, "T8": {"quality": 9, "value": 7736}, "F7": {"quality": 12, "value": 8158}, "F8": {"quality": 11, "value": 8030}, "Unknown": {"quality": 11, "value": 82}, "AF4": {"quality": 10, "value": 8174}, "AF3": {"quality": 10, "value": 8592}}'
p539
sbag2
(g3
g4
NtRp540
(dp541
g7
I2
sg8
I78
sg9
I00
sg10
S"No\xcd\xc3H`\x9f\xc6x%\xee\xa7\xd8\x81\xba\x00\x02\r\x88\t^\x10}y\xfe'\x8f[\xadgk\xb3"
p542
sg12
I-3
sg13
I2
sg14
S'{"P7": {"quality": 10, "value": 7914}, "FC6": {"quality": 10, "value": 7744}, "T7": {"quality": 13, "value": 7694}, "P8": {"quality": 6, "value": 8255}, "Y": {"quality": 0, "value": 2}, "X": {"quality": 0, "value": -3}, "O2": {"quality": 7, "value": 8414}, "O1": {"quality": 11, "value": 8037}, "FC5": {"quality": 11, "value": 7256}, "F3": {"quality": 9, "value": 7157}, "F4": {"quality": 9, "value": 7103}, "T8": {"quality": 9, "value": 7736}, "F7": {"quality": 12, "value": 8158}, "F8": {"quality": 11, "value": 8030}, "Unknown": {"quality": 11, "value": 82}, "AF4": {"quality": 10, "value": 8174}, "AF3": {"quality": 10, "value": 8592}}'
p543
sbag2
(g3
g4
NtRp544
(dp545
g7
I2
sg8
I79
sg9
I00
sg10
S'Oo\xd5\xc4\xd8a\x1f\xcbx)\xefW\xda\x81\xb5\x00\x02\x0e\xa8\x0e\xde-}\x8d\xfeW\x90\xdb\xafgk\xb3'
p546
sg12
I-3
sg13
I2
sg14
S'{"P7": {"quality": 10, "value": 7914}, "FC6": {"quality": 10, "value": 7744}, "T7": {"quality": 13, "value": 7694}, "P8": {"quality": 6, "value": 8255}, "Y": {"quality": 0, "value": 2}, "X": {"quality": 0, "value": -3}, "O2": {"quality": 7, "value": 8414}, "O1": {"quality": 11, "value": 8037}, "FC5": {"quality": 11, "value": 7256}, "F3": {"quality": 9, "value": 7157}, "F4": {"quality": 9, "value": 7103}, "T8": {"quality": 9, "value": 7736}, "F7": {"quality": 12, "value": 8158}, "F8": {"quality": 11, "value": 8030}, "Unknown": {"quality": 11, "value": 82}, "AF4": {"quality": 10, "value": 8174}, "AF3": {"quality": 10, "value": 8592}}'
p547
sbag2
(g3
g4
NtRp548
(dp549
g7
I2
sg8
I80
sg9
I00
sg10
S'Po\xc5\xc4\xb8_\x9f\xc9x\r\xeeg\xdbA\xab\x00\x02\x0e8\x0b^;}]\xfe\x07\x91\x1b\xaegk\x84'
p550
sg12
I-3
sg13
I2
sg14
S'{"P7": {"quality": 10, "value": 7914}, "FC6": {"quality": 10, "value": 7744}, "T7": {"quality": 13, "value": 7694}, "P8": {"quality": 6, "value": 8255}, "Y": {"quality": 0, "value": 2}, "X": {"quality": 0, "value": -3}, "O2": {"quality": 7, "value": 8414}, "O1": {"quality": 11, "value": 8037}, "FC5": {"quality": 11, "value": 7256}, "F3": {"quality": 9, "value": 7157}, "F4": {"quality": 9, "value": 7103}, "T8": {"quality": 9, "value": 7736}, "F7": {"quality": 12, "value": 8158}, "F8": {"quality": 11, "value": 8030}, "Unknown": {"quality": 11, "value": 82}, "AF4": {"quality": 10, "value": 8174}, "AF3": {"quality": 10, "value": 8592}}'
p551
sbag2
(g3
g4
NtRp552
(dp553
g7
I2
sg8
I81
sg9
I00
sg10
S'Qo\xb9\xc4\x88`\x9f\xcfx\x1d\xed\xd7\xd9\xc1\x9e\x00\x02\rX\x08\xde4}I\xfeG\x90\x1b\xb3gkt'
p554
sg12
I-3
sg13
I2
sg14
S'{"P7": {"quality": 10, "value": 7914}, "FC6": {"quality": 10, "value": 7744}, "T7": {"quality": 13, "value": 7694}, "P8": {"quality": 6, "value": 8255}, "Y": {"quality": 0, "value": 2}, "X": {"quality": 0, "value": -3}, "O2": {"quality": 7, "value": 8414}, "O1": {"quality": 11, "value": 8037}, "FC5": {"quality": 11, "value": 7256}, "F3": {"quality": 9, "value": 7157}, "F4": {"quality": 9, "value": 7103}, "T8": {"quality": 9, "value": 7736}, "F7": {"quality": 12, "value": 8158}, "F8": {"quality": 11, "value": 8030}, "Unknown": {"quality": 11, "value": 82}, "AF4": {"quality": 10, "value": 8174}, "AF3": {"quality": 10, "value": 8592}}'
p555
sba.