ccopy_reg
_reconstructor
p1
(cgraph
Graph
p2
c__builtin__
object
p3
NtRp4
(dp5
S'current'
p6
I0
sS'edges'
p7
(lp8
(lp9
(I1
I1
tp10
a(I2
I2
tp11
aa(lp12
(I2
I1
tp13
a(I3
I2
tp14
aa(lp15
(I3
I1
tp16
a(I0
I2
tp17
aa(lp18
(I0
I1
tp19
a(I1
I2
tp20
aasS'coords'
p21
(lp22
(I100
I100
tp23
a(I300
I100
tp24
a(I300
I300
tp25
a(I100
I300
tp26
asS'names'
p27
(lp28
S'A\n'
p29
aS'B\n'
p30
aS'C\n'
p31
aS'D\n'
p32
asS'n'
I4
sb.